; Listing generated by Microsoft (R) Optimizing Compiler Version 19.16.27034.0 

	TITLE	c:\users\henry\source\repos\otc\otc\otc\cpp\utils\panicutils.cpp
	.686P
	.XMM
	include listing.inc
	.model	flat

INCLUDELIB OLDNAMES

PUBLIC	??_C@_03MLMOILGK@Msg@				; `string'
PUBLIC	??_C@_09LGKBAKDK@tier0?4dll@			; `string'
PUBLIC	??_C@_0BA@OBHPCBFP@CreateInterface@		; `string'
PUBLIC	??_C@_0L@EMPDFJNI@engine?4dll@			; `string'
PUBLIC	??_C@_0BB@CJDLPJJP@VEngineClient014@		; `string'
PUBLIC	??_C@_0EE@KHFJPLEA@?$CB?$CB?$CB?$CB?$CB?$CB?$CB?$CB?$CB?$CB?$CB?$CB?$CB?$CB?$CB?$CB?$CB?$CB?$CB?$CB?$CB?$CB?$CB?$CB?$CB?$CB?$CB?$CB?$CB?$CB?5@ ; `string'
PUBLIC	??_C@_0FO@HCNJJPPM@Send?5this?5log?5to?5the?5developer?5@ ; `string'
PUBLIC	??_C@_0DM@GOADBMDA@?9?9?9?9?9?9?9?9?9?9?9?9?9?9?9?9?9?9?9?9?9?9?9?9?9?9?9?9?9?9?9@ ; `string'
PUBLIC	??_C@_02MDDDDAID@0x@				; `string'
PUBLIC	??_C@_0BH@JGFIANLP@?$FLSEGMENT?$FN?5Allocation?3?5@ ; `string'
PUBLIC	??_C@_0BD@EMEBIIFP@?$FLSEGMENT?$FN?5Module?3?5@	; `string'
PUBLIC	??_C@_0BD@IPMJGJLJ@Global?5variables?3?5@	; `string'
PUBLIC	??_C@_0BN@PNBNEKLM@?9?9?9?9?9?9?9?9?9?9?9?9?9?9?9?9?9?9?9?9?9?9?9?9?9?9?9?9@ ; `string'
PUBLIC	??_C@_01LFCBOECM@?4@				; `string'
PUBLIC	??_C@_08IIKACINI@Caused?3?5@			; `string'
PUBLIC	??_C@_07MJJPDIKC@Layer?3?5@			; `string'
PUBLIC	??_C@_0BM@KFAEANNI@?9?9?9?9?9?9?9?9?9?9?9?5INFO?5?9?9?9?9?9?9?9?9?9?9@ ; `string'
PUBLIC	??_C@_0EF@OFOAANJP@After?5information?5about?5the?5cau@ ; `string'
PUBLIC	??_C@_0EF@ICLOMLHH@If?5you?5see?5this?5message?3?5OTC?5ca@ ; `string'
PUBLIC	??_C@_06MNPNKHCO@_Panic@			; `string'
PUBLIC	??_C@_0BM@DKGLMJLA@Log?5may?5at?5document?5folder?4@ ; `string'
PUBLIC	??_R3?$basic_istream@DU?$char_traits@D@std@@@std@@8 ; std::basic_istream<char,std::char_traits<char> >::`RTTI Class Hierarchy Descriptor'
PUBLIC	??_R3?$basic_iostream@DU?$char_traits@D@std@@@std@@8 ; std::basic_iostream<char,std::char_traits<char> >::`RTTI Class Hierarchy Descriptor'
PUBLIC	??_R0?AV?$basic_stringstream@DU?$char_traits@D@std@@V?$allocator@D@2@@std@@@8 ; std::basic_stringstream<char,std::char_traits<char>,std::allocator<char> > `RTTI Type Descriptor'
PUBLIC	??_R1A@?0A@EA@?$basic_istream@DU?$char_traits@D@std@@@std@@8 ; std::basic_istream<char,std::char_traits<char> >::`RTTI Base Class Descriptor at (0,-1,0,64)'
PUBLIC	??_R0?AV?$basic_iostream@DU?$char_traits@D@std@@@std@@@8 ; std::basic_iostream<char,std::char_traits<char> > `RTTI Type Descriptor'
PUBLIC	??_R1A@?0A@EA@?$basic_stringstream@DU?$char_traits@D@std@@V?$allocator@D@2@@std@@8 ; std::basic_stringstream<char,std::char_traits<char>,std::allocator<char> >::`RTTI Base Class Descriptor at (0,-1,0,64)'
PUBLIC	??_8?$basic_stringstream@DU?$char_traits@D@std@@V?$allocator@D@2@@std@@7B?$basic_ostream@DU?$char_traits@D@std@@@1@@ ; std::basic_stringstream<char,std::char_traits<char>,std::allocator<char> >::`vbtable'
PUBLIC	??_R2?$basic_istream@DU?$char_traits@D@std@@@std@@8 ; std::basic_istream<char,std::char_traits<char> >::`RTTI Base Class Array'
PUBLIC	??_R1BA@?0A@EA@?$basic_ostream@DU?$char_traits@D@std@@@std@@8 ; std::basic_ostream<char,std::char_traits<char> >::`RTTI Base Class Descriptor at (16,-1,0,64)'
PUBLIC	??_R0?AV?$basic_istream@DU?$char_traits@D@std@@@std@@@8 ; std::basic_istream<char,std::char_traits<char> > `RTTI Type Descriptor'
PUBLIC	??_7?$basic_stringstream@DU?$char_traits@D@std@@V?$allocator@D@2@@std@@6B@ ; std::basic_stringstream<char,std::char_traits<char>,std::allocator<char> >::`vftable'
PUBLIC	??_R2?$basic_iostream@DU?$char_traits@D@std@@@std@@8 ; std::basic_iostream<char,std::char_traits<char> >::`RTTI Base Class Array'
PUBLIC	??_R2?$basic_stringstream@DU?$char_traits@D@std@@V?$allocator@D@2@@std@@8 ; std::basic_stringstream<char,std::char_traits<char>,std::allocator<char> >::`RTTI Base Class Array'
PUBLIC	??_R4?$basic_stringstream@DU?$char_traits@D@std@@V?$allocator@D@2@@std@@6B@ ; std::basic_stringstream<char,std::char_traits<char>,std::allocator<char> >::`RTTI Complete Object Locator'
PUBLIC	??_R1A@?0A@EA@?$basic_iostream@DU?$char_traits@D@std@@@std@@8 ; std::basic_iostream<char,std::char_traits<char> >::`RTTI Base Class Descriptor at (0,-1,0,64)'
PUBLIC	??_8?$basic_stringstream@DU?$char_traits@D@std@@V?$allocator@D@2@@std@@7B?$basic_istream@DU?$char_traits@D@std@@@1@@ ; std::basic_stringstream<char,std::char_traits<char>,std::allocator<char> >::`vbtable'
PUBLIC	??_R3?$basic_stringstream@DU?$char_traits@D@std@@V?$allocator@D@2@@std@@8 ; std::basic_stringstream<char,std::char_traits<char>,std::allocator<char> >::`RTTI Class Hierarchy Descriptor'
EXTRN	__imp_?setf@ios_base@std@@QAEHH@Z:PROC
EXTRN	__imp_?setf@ios_base@std@@QAEHHH@Z:PROC
EXTRN	__imp_??1?$basic_iostream@DU?$char_traits@D@std@@@std@@UAE@XZ:PROC
EXTRN	__imp_??6?$basic_ostream@DU?$char_traits@D@std@@@std@@QAEAAV01@H@Z:PROC
EXTRN	__imp_??6?$basic_ostream@DU?$char_traits@D@std@@@std@@QAEAAV01@P6AAAVios_base@1@AAV21@@Z@Z:PROC
EXTRN	__imp_??0?$basic_iostream@DU?$char_traits@D@std@@@std@@QAE@PAV?$basic_streambuf@DU?$char_traits@D@std@@@1@@Z:PROC
EXTRN	__imp__ExitProcess@4:PROC
EXTRN	__imp__ExitThread@4:PROC
EXTRN	__imp__FreeLibraryAndExitThread@8:PROC
EXTRN	__imp__VirtualFree@12:PROC
;	COMDAT ??_R3?$basic_stringstream@DU?$char_traits@D@std@@V?$allocator@D@2@@std@@8
rdata$r	SEGMENT
??_R3?$basic_stringstream@DU?$char_traits@D@std@@V?$allocator@D@2@@std@@8 DD 00H ; std::basic_stringstream<char,std::char_traits<char>,std::allocator<char> >::`RTTI Class Hierarchy Descriptor'
	DD	03H
	DD	0aH
	DD	FLAT:??_R2?$basic_stringstream@DU?$char_traits@D@std@@V?$allocator@D@2@@std@@8
rdata$r	ENDS
;	COMDAT ??_8?$basic_stringstream@DU?$char_traits@D@std@@V?$allocator@D@2@@std@@7B?$basic_istream@DU?$char_traits@D@std@@@1@@
CONST	SEGMENT
??_8?$basic_stringstream@DU?$char_traits@D@std@@V?$allocator@D@2@@std@@7B?$basic_istream@DU?$char_traits@D@std@@@1@@ DD 00H ; std::basic_stringstream<char,std::char_traits<char>,std::allocator<char> >::`vbtable'
	DD	068H
CONST	ENDS
;	COMDAT ??_R1A@?0A@EA@?$basic_iostream@DU?$char_traits@D@std@@@std@@8
rdata$r	SEGMENT
??_R1A@?0A@EA@?$basic_iostream@DU?$char_traits@D@std@@@std@@8 DD FLAT:??_R0?AV?$basic_iostream@DU?$char_traits@D@std@@@std@@@8 ; std::basic_iostream<char,std::char_traits<char> >::`RTTI Base Class Descriptor at (0,-1,0,64)'
	DD	08H
	DD	00H
	DD	0ffffffffH
	DD	00H
	DD	040H
	DD	FLAT:??_R3?$basic_iostream@DU?$char_traits@D@std@@@std@@8
rdata$r	ENDS
;	COMDAT ??_R4?$basic_stringstream@DU?$char_traits@D@std@@V?$allocator@D@2@@std@@6B@
rdata$r	SEGMENT
??_R4?$basic_stringstream@DU?$char_traits@D@std@@V?$allocator@D@2@@std@@6B@ DD 00H ; std::basic_stringstream<char,std::char_traits<char>,std::allocator<char> >::`RTTI Complete Object Locator'
	DD	068H
	DD	04H
	DD	FLAT:??_R0?AV?$basic_stringstream@DU?$char_traits@D@std@@V?$allocator@D@2@@std@@@8
	DD	FLAT:??_R3?$basic_stringstream@DU?$char_traits@D@std@@V?$allocator@D@2@@std@@8
rdata$r	ENDS
;	COMDAT ??_R2?$basic_stringstream@DU?$char_traits@D@std@@V?$allocator@D@2@@std@@8
rdata$r	SEGMENT
??_R2?$basic_stringstream@DU?$char_traits@D@std@@V?$allocator@D@2@@std@@8 DD FLAT:??_R1A@?0A@EA@?$basic_stringstream@DU?$char_traits@D@std@@V?$allocator@D@2@@std@@8 ; std::basic_stringstream<char,std::char_traits<char>,std::allocator<char> >::`RTTI Base Class Array'
	DD	FLAT:??_R1A@?0A@EA@?$basic_iostream@DU?$char_traits@D@std@@@std@@8
	DD	FLAT:??_R1A@?0A@EA@?$basic_istream@DU?$char_traits@D@std@@@std@@8
	DD	FLAT:??_R1A@A@3FA@?$basic_ios@DU?$char_traits@D@std@@@std@@8
	DD	FLAT:??_R1A@A@3EA@ios_base@std@@8
	DD	FLAT:??_R17A@3EA@?$_Iosb@H@std@@8
	DD	FLAT:??_R1BA@?0A@EA@?$basic_ostream@DU?$char_traits@D@std@@@std@@8
	DD	FLAT:??_R1A@A@3FA@?$basic_ios@DU?$char_traits@D@std@@@std@@8
	DD	FLAT:??_R1A@A@3EA@ios_base@std@@8
	DD	FLAT:??_R17A@3EA@?$_Iosb@H@std@@8
rdata$r	ENDS
;	COMDAT ??_R2?$basic_iostream@DU?$char_traits@D@std@@@std@@8
rdata$r	SEGMENT
??_R2?$basic_iostream@DU?$char_traits@D@std@@@std@@8 DD FLAT:??_R1A@?0A@EA@?$basic_iostream@DU?$char_traits@D@std@@@std@@8 ; std::basic_iostream<char,std::char_traits<char> >::`RTTI Base Class Array'
	DD	FLAT:??_R1A@?0A@EA@?$basic_istream@DU?$char_traits@D@std@@@std@@8
	DD	FLAT:??_R1A@A@3FA@?$basic_ios@DU?$char_traits@D@std@@@std@@8
	DD	FLAT:??_R1A@A@3EA@ios_base@std@@8
	DD	FLAT:??_R17A@3EA@?$_Iosb@H@std@@8
	DD	FLAT:??_R1BA@?0A@EA@?$basic_ostream@DU?$char_traits@D@std@@@std@@8
	DD	FLAT:??_R1A@A@3FA@?$basic_ios@DU?$char_traits@D@std@@@std@@8
	DD	FLAT:??_R1A@A@3EA@ios_base@std@@8
	DD	FLAT:??_R17A@3EA@?$_Iosb@H@std@@8
rdata$r	ENDS
;	COMDAT ??_7?$basic_stringstream@DU?$char_traits@D@std@@V?$allocator@D@2@@std@@6B@
CONST	SEGMENT
??_7?$basic_stringstream@DU?$char_traits@D@std@@V?$allocator@D@2@@std@@6B@ DD FLAT:??_R4?$basic_stringstream@DU?$char_traits@D@std@@V?$allocator@D@2@@std@@6B@ ; std::basic_stringstream<char,std::char_traits<char>,std::allocator<char> >::`vftable'
	DD	FLAT:??_E?$basic_stringstream@DU?$char_traits@D@std@@V?$allocator@D@2@@std@@$4PPPPPPPM@A@AEPAXI@Z
CONST	ENDS
;	COMDAT ??_R0?AV?$basic_istream@DU?$char_traits@D@std@@@std@@@8
data$r	SEGMENT
??_R0?AV?$basic_istream@DU?$char_traits@D@std@@@std@@@8 DD FLAT:??_7type_info@@6B@ ; std::basic_istream<char,std::char_traits<char> > `RTTI Type Descriptor'
	DD	00H
	DB	'.?AV?$basic_istream@DU?$char_traits@D@std@@@std@@', 00H
data$r	ENDS
;	COMDAT ??_R1BA@?0A@EA@?$basic_ostream@DU?$char_traits@D@std@@@std@@8
rdata$r	SEGMENT
??_R1BA@?0A@EA@?$basic_ostream@DU?$char_traits@D@std@@@std@@8 DD FLAT:??_R0?AV?$basic_ostream@DU?$char_traits@D@std@@@std@@@8 ; std::basic_ostream<char,std::char_traits<char> >::`RTTI Base Class Descriptor at (16,-1,0,64)'
	DD	03H
	DD	010H
	DD	0ffffffffH
	DD	00H
	DD	040H
	DD	FLAT:??_R3?$basic_ostream@DU?$char_traits@D@std@@@std@@8
rdata$r	ENDS
;	COMDAT ??_R2?$basic_istream@DU?$char_traits@D@std@@@std@@8
rdata$r	SEGMENT
??_R2?$basic_istream@DU?$char_traits@D@std@@@std@@8 DD FLAT:??_R1A@?0A@EA@?$basic_istream@DU?$char_traits@D@std@@@std@@8 ; std::basic_istream<char,std::char_traits<char> >::`RTTI Base Class Array'
	DD	FLAT:??_R1A@A@3FA@?$basic_ios@DU?$char_traits@D@std@@@std@@8
	DD	FLAT:??_R1A@A@3EA@ios_base@std@@8
	DD	FLAT:??_R17A@3EA@?$_Iosb@H@std@@8
rdata$r	ENDS
;	COMDAT ??_8?$basic_stringstream@DU?$char_traits@D@std@@V?$allocator@D@2@@std@@7B?$basic_ostream@DU?$char_traits@D@std@@@1@@
CONST	SEGMENT
??_8?$basic_stringstream@DU?$char_traits@D@std@@V?$allocator@D@2@@std@@7B?$basic_ostream@DU?$char_traits@D@std@@@1@@ DD 00H ; std::basic_stringstream<char,std::char_traits<char>,std::allocator<char> >::`vbtable'
	DD	058H
CONST	ENDS
;	COMDAT ??_R1A@?0A@EA@?$basic_stringstream@DU?$char_traits@D@std@@V?$allocator@D@2@@std@@8
rdata$r	SEGMENT
??_R1A@?0A@EA@?$basic_stringstream@DU?$char_traits@D@std@@V?$allocator@D@2@@std@@8 DD FLAT:??_R0?AV?$basic_stringstream@DU?$char_traits@D@std@@V?$allocator@D@2@@std@@@8 ; std::basic_stringstream<char,std::char_traits<char>,std::allocator<char> >::`RTTI Base Class Descriptor at (0,-1,0,64)'
	DD	09H
	DD	00H
	DD	0ffffffffH
	DD	00H
	DD	040H
	DD	FLAT:??_R3?$basic_stringstream@DU?$char_traits@D@std@@V?$allocator@D@2@@std@@8
rdata$r	ENDS
;	COMDAT ??_R0?AV?$basic_iostream@DU?$char_traits@D@std@@@std@@@8
data$r	SEGMENT
??_R0?AV?$basic_iostream@DU?$char_traits@D@std@@@std@@@8 DD FLAT:??_7type_info@@6B@ ; std::basic_iostream<char,std::char_traits<char> > `RTTI Type Descriptor'
	DD	00H
	DB	'.?AV?$basic_iostream@DU?$char_traits@D@std@@@std@@', 00H
data$r	ENDS
;	COMDAT ??_R1A@?0A@EA@?$basic_istream@DU?$char_traits@D@std@@@std@@8
rdata$r	SEGMENT
??_R1A@?0A@EA@?$basic_istream@DU?$char_traits@D@std@@@std@@8 DD FLAT:??_R0?AV?$basic_istream@DU?$char_traits@D@std@@@std@@@8 ; std::basic_istream<char,std::char_traits<char> >::`RTTI Base Class Descriptor at (0,-1,0,64)'
	DD	03H
	DD	00H
	DD	0ffffffffH
	DD	00H
	DD	040H
	DD	FLAT:??_R3?$basic_istream@DU?$char_traits@D@std@@@std@@8
rdata$r	ENDS
;	COMDAT ??_R0?AV?$basic_stringstream@DU?$char_traits@D@std@@V?$allocator@D@2@@std@@@8
data$r	SEGMENT
??_R0?AV?$basic_stringstream@DU?$char_traits@D@std@@V?$allocator@D@2@@std@@@8 DD FLAT:??_7type_info@@6B@ ; std::basic_stringstream<char,std::char_traits<char>,std::allocator<char> > `RTTI Type Descriptor'
	DD	00H
	DB	'.?AV?$basic_stringstream@DU?$char_traits@D@std@@V?$alloc'
	DB	'ator@D@2@@std@@', 00H
data$r	ENDS
;	COMDAT ??_R3?$basic_iostream@DU?$char_traits@D@std@@@std@@8
rdata$r	SEGMENT
??_R3?$basic_iostream@DU?$char_traits@D@std@@@std@@8 DD 00H ; std::basic_iostream<char,std::char_traits<char> >::`RTTI Class Hierarchy Descriptor'
	DD	03H
	DD	09H
	DD	FLAT:??_R2?$basic_iostream@DU?$char_traits@D@std@@@std@@8
rdata$r	ENDS
;	COMDAT ??_R3?$basic_istream@DU?$char_traits@D@std@@@std@@8
rdata$r	SEGMENT
??_R3?$basic_istream@DU?$char_traits@D@std@@@std@@8 DD 00H ; std::basic_istream<char,std::char_traits<char> >::`RTTI Class Hierarchy Descriptor'
	DD	00H
	DD	04H
	DD	FLAT:??_R2?$basic_istream@DU?$char_traits@D@std@@@std@@8
rdata$r	ENDS
;	COMDAT ??_C@_0BM@DKGLMJLA@Log?5may?5at?5document?5folder?4@
CONST	SEGMENT
??_C@_0BM@DKGLMJLA@Log?5may?5at?5document?5folder?4@ DB 'Log may at docum'
	DB	'ent folder.', 00H				; `string'
CONST	ENDS
;	COMDAT ??_C@_06MNPNKHCO@_Panic@
CONST	SEGMENT
??_C@_06MNPNKHCO@_Panic@ DB '_Panic', 00H		; `string'
CONST	ENDS
;	COMDAT ??_C@_0EF@ICLOMLHH@If?5you?5see?5this?5message?3?5OTC?5ca@
CONST	SEGMENT
??_C@_0EF@ICLOMLHH@If?5you?5see?5this?5message?3?5OTC?5ca@ DB 'If you see'
	DB	' this message: OTC cannot find a way out of the situation.', 00H ; `string'
CONST	ENDS
;	COMDAT ??_C@_0EF@OFOAANJP@After?5information?5about?5the?5cau@
CONST	SEGMENT
??_C@_0EF@OFOAANJP@After?5information?5about?5the?5cau@ DB 'After informa'
	DB	'tion about the cause of the error, CSGO will be frozen.', 00H ; `string'
CONST	ENDS
;	COMDAT ??_C@_0BM@KFAEANNI@?9?9?9?9?9?9?9?9?9?9?9?5INFO?5?9?9?9?9?9?9?9?9?9?9@
CONST	SEGMENT
??_C@_0BM@KFAEANNI@?9?9?9?9?9?9?9?9?9?9?9?5INFO?5?9?9?9?9?9?9?9?9?9?9@ DB '-'
	DB	'---------- INFO ----------', 00H		; `string'
CONST	ENDS
;	COMDAT ??_C@_07MJJPDIKC@Layer?3?5@
CONST	SEGMENT
??_C@_07MJJPDIKC@Layer?3?5@ DB 'Layer: ', 00H		; `string'
CONST	ENDS
;	COMDAT ??_C@_08IIKACINI@Caused?3?5@
CONST	SEGMENT
??_C@_08IIKACINI@Caused?3?5@ DB 'Caused: ', 00H		; `string'
CONST	ENDS
;	COMDAT ??_C@_01LFCBOECM@?4@
CONST	SEGMENT
??_C@_01LFCBOECM@?4@ DB '.', 00H			; `string'
CONST	ENDS
;	COMDAT ??_C@_0BN@PNBNEKLM@?9?9?9?9?9?9?9?9?9?9?9?9?9?9?9?9?9?9?9?9?9?9?9?9?9?9?9?9@
CONST	SEGMENT
??_C@_0BN@PNBNEKLM@?9?9?9?9?9?9?9?9?9?9?9?9?9?9?9?9?9?9?9?9?9?9?9?9?9?9?9?9@ DB '-'
	DB	'---------------------------', 00H		; `string'
CONST	ENDS
;	COMDAT ??_C@_0BD@IPMJGJLJ@Global?5variables?3?5@
CONST	SEGMENT
??_C@_0BD@IPMJGJLJ@Global?5variables?3?5@ DB 'Global variables: ', 00H ; `string'
CONST	ENDS
;	COMDAT ??_C@_0BD@EMEBIIFP@?$FLSEGMENT?$FN?5Module?3?5@
CONST	SEGMENT
??_C@_0BD@EMEBIIFP@?$FLSEGMENT?$FN?5Module?3?5@ DB '[SEGMENT] Module: ', 00H ; `string'
CONST	ENDS
;	COMDAT ??_C@_0BH@JGFIANLP@?$FLSEGMENT?$FN?5Allocation?3?5@
CONST	SEGMENT
??_C@_0BH@JGFIANLP@?$FLSEGMENT?$FN?5Allocation?3?5@ DB '[SEGMENT] Allocat'
	DB	'ion: ', 00H					; `string'
CONST	ENDS
;	COMDAT ??_C@_02MDDDDAID@0x@
CONST	SEGMENT
??_C@_02MDDDDAID@0x@ DB '0x', 00H			; `string'
CONST	ENDS
;	COMDAT ??_C@_0DM@GOADBMDA@?9?9?9?9?9?9?9?9?9?9?9?9?9?9?9?9?9?9?9?9?9?9?9?9?9?9?9?9?9?9?9@
CONST	SEGMENT
??_C@_0DM@GOADBMDA@?9?9?9?9?9?9?9?9?9?9?9?9?9?9?9?9?9?9?9?9?9?9?9?9?9?9?9?9?9?9?9@ DB '-'
	DB	'----------------------------------------------------------', 00H ; `string'
CONST	ENDS
;	COMDAT ??_C@_0FO@HCNJJPPM@Send?5this?5log?5to?5the?5developer?5@
CONST	SEGMENT
??_C@_0FO@HCNJJPPM@Send?5this?5log?5to?5the?5developer?5@ DB 'Send this l'
	DB	'og to the developer or try connecting a debugger and find out'
	DB	' what the problem is.', 00H			; `string'
CONST	ENDS
;	COMDAT ??_C@_0EE@KHFJPLEA@?$CB?$CB?$CB?$CB?$CB?$CB?$CB?$CB?$CB?$CB?$CB?$CB?$CB?$CB?$CB?$CB?$CB?$CB?$CB?$CB?$CB?$CB?$CB?$CB?$CB?$CB?$CB?$CB?$CB?$CB?5@
CONST	SEGMENT
??_C@_0EE@KHFJPLEA@?$CB?$CB?$CB?$CB?$CB?$CB?$CB?$CB?$CB?$CB?$CB?$CB?$CB?$CB?$CB?$CB?$CB?$CB?$CB?$CB?$CB?$CB?$CB?$CB?$CB?$CB?$CB?$CB?$CB?$CB?5@ DB '!'
	DB	'!!!!!!!!!!!!!!!!!!!!!!!!!!!!! PANIC !!!!!!!!!!!!!!!!!!!!!!!!!'
	DB	'!!!!!', 00H					; `string'
CONST	ENDS
;	COMDAT ??_C@_0BB@CJDLPJJP@VEngineClient014@
CONST	SEGMENT
??_C@_0BB@CJDLPJJP@VEngineClient014@ DB 'VEngineClient014', 00H ; `string'
CONST	ENDS
;	COMDAT ??_C@_0L@EMPDFJNI@engine?4dll@
CONST	SEGMENT
??_C@_0L@EMPDFJNI@engine?4dll@ DB 'engine.dll', 00H	; `string'
CONST	ENDS
;	COMDAT ??_C@_0BA@OBHPCBFP@CreateInterface@
CONST	SEGMENT
??_C@_0BA@OBHPCBFP@CreateInterface@ DB 'CreateInterface', 00H ; `string'
CONST	ENDS
;	COMDAT ??_C@_09LGKBAKDK@tier0?4dll@
CONST	SEGMENT
??_C@_09LGKBAKDK@tier0?4dll@ DB 'tier0.dll', 00H	; `string'
CONST	ENDS
;	COMDAT ??_C@_03MLMOILGK@Msg@
CONST	SEGMENT
??_C@_03MLMOILGK@Msg@ DB 'Msg', 00H			; `string'
PUBLIC	??_E?$basic_stringstream@DU?$char_traits@D@std@@V?$allocator@D@2@@std@@$4PPPPPPPM@A@AEPAXI@Z ; std::basic_stringstream<char,std::char_traits<char>,std::allocator<char> >::`vector deleting destructor'
PUBLIC	??_G?$basic_stringstream@DU?$char_traits@D@std@@V?$allocator@D@2@@std@@UAEPAXI@Z ; std::basic_stringstream<char,std::char_traits<char>,std::allocator<char> >::`scalar deleting destructor'
PUBLIC	??0?$basic_stringstream@DU?$char_traits@D@std@@V?$allocator@D@2@@std@@QAE@H@Z ; std::basic_stringstream<char,std::char_traits<char>,std::allocator<char> >::basic_stringstream<char,std::char_traits<char>,std::allocator<char> >
PUBLIC	??1?$basic_stringstream@DU?$char_traits@D@std@@V?$allocator@D@2@@std@@UAE@XZ ; std::basic_stringstream<char,std::char_traits<char>,std::allocator<char> >::~basic_stringstream<char,std::char_traits<char>,std::allocator<char> >
PUBLIC	?str@?$basic_stringstream@DU?$char_traits@D@std@@V?$allocator@D@2@@std@@QBE?AV?$basic_string@DU?$char_traits@D@std@@V?$allocator@D@2@@2@XZ ; std::basic_stringstream<char,std::char_traits<char>,std::allocator<char> >::str
PUBLIC	?__autoclassinit2@?$basic_stringstream@DU?$char_traits@D@std@@V?$allocator@D@2@@std@@QAEXI@Z ; std::basic_stringstream<char,std::char_traits<char>,std::allocator<char> >::__autoclassinit2
PUBLIC	??_D?$basic_stringstream@DU?$char_traits@D@std@@V?$allocator@D@2@@std@@QAEXXZ ; std::basic_stringstream<char,std::char_traits<char>,std::allocator<char> >::`vbase destructor'
PUBLIC	?__autoclassinit2@Logger@@QAEXI@Z		; Logger::__autoclassinit2
PUBLIC	??0GameFramework@@QAE@XZ			; GameFramework::GameFramework
PUBLIC	??0Logger@@QAE@W4LoggerType@0@@Z		; Logger::Logger
PUBLIC	?uppercase@std@@YAAAVios_base@1@AAV21@@Z	; std::uppercase
PUBLIC	?hex@std@@YAAAVios_base@1@AAV21@@Z		; std::hex
PUBLIC	?SetImportant@PanicUtils@@SAXPAKKPBD@Z		; PanicUtils::SetImportant
PUBLIC	?Release@PanicUtils@@SAXW4Layers@1@PBD@Z	; PanicUtils::Release
PUBLIC	?RequireNonNull@PanicUtils@@SAXW4Layers@1@KPBD@Z ; PanicUtils::RequireNonNull
EXTRN	??_E?$basic_stringstream@DU?$char_traits@D@std@@V?$allocator@D@2@@std@@UAEPAXI@Z:PROC ; std::basic_stringstream<char,std::char_traits<char>,std::allocator<char> >::`vector deleting destructor'
;	COMDAT xdata$x
xdata$x	SEGMENT
__ehfuncinfo$?Release@PanicUtils@@SAXW4Layers@1@PBD@Z DD 019930522H
	DD	02H
	DD	FLAT:__unwindtable$?Release@PanicUtils@@SAXW4Layers@1@PBD@Z
	DD	2 DUP(00H)
	DD	2 DUP(00H)
	DD	00H
	DD	01H
__unwindtable$?Release@PanicUtils@@SAXW4Layers@1@PBD@Z DD 0ffffffffH
	DD	FLAT:__unwindfunclet$?Release@PanicUtils@@SAXW4Layers@1@PBD@Z$0
	DD	00H
	DD	FLAT:__unwindfunclet$?Release@PanicUtils@@SAXW4Layers@1@PBD@Z$1
xdata$x	ENDS
;	COMDAT xdata$x
xdata$x	SEGMENT
__ehfuncinfo$??0?$basic_stringstream@DU?$char_traits@D@std@@V?$allocator@D@2@@std@@QAE@H@Z DD 019930522H
	DD	02H
	DD	FLAT:__unwindtable$??0?$basic_stringstream@DU?$char_traits@D@std@@V?$allocator@D@2@@std@@QAE@H@Z
	DD	2 DUP(00H)
	DD	2 DUP(00H)
	DD	00H
	DD	01H
__unwindtable$??0?$basic_stringstream@DU?$char_traits@D@std@@V?$allocator@D@2@@std@@QAE@H@Z DD 0ffffffffH
	DD	FLAT:__unwindfunclet$??0?$basic_stringstream@DU?$char_traits@D@std@@V?$allocator@D@2@@std@@QAE@H@Z$0
	DD	00H
	DD	FLAT:__unwindfunclet$??0?$basic_stringstream@DU?$char_traits@D@std@@V?$allocator@D@2@@std@@QAE@H@Z$1
; Function compile flags: /Ogtp
; File c:\users\henry\source\repos\otc\otc\otc\cpp\utils\panicutils.cpp
;	COMDAT ?RequireNonNull@PanicUtils@@SAXW4Layers@1@KPBD@Z
_TEXT	SEGMENT
_reason$ = 8						; size = 4
?RequireNonNull@PanicUtils@@SAXW4Layers@1@KPBD@Z PROC	; PanicUtils::RequireNonNull, COMDAT
; _layer$ = ecx
; _value$ = edx

; 12   : void PanicUtils::RequireNonNull (Layers layer, DWORD value, const char* reason) {

  00000	55		 push	 ebp
  00001	8b ec		 mov	 ebp, esp

; 13   :     if (!value) {

  00003	85 d2		 test	 edx, edx
  00005	75 08		 jne	 SHORT $LN2@RequireNon

; 14   :         PanicUtils::Release (layer, reason);

  00007	8b 55 08	 mov	 edx, DWORD PTR _reason$[ebp]
  0000a	e9 00 00 00 00	 jmp	 ?Release@PanicUtils@@SAXW4Layers@1@PBD@Z ; PanicUtils::Release
$LN2@RequireNon:

; 15   :     }
; 16   : }

  0000f	5d		 pop	 ebp
  00010	c3		 ret	 0
?RequireNonNull@PanicUtils@@SAXW4Layers@1@KPBD@Z ENDP	; PanicUtils::RequireNonNull
_TEXT	ENDS
; Function compile flags: /Ogtp
; File c:\users\henry\source\repos\otc\otc\otc\cpp\utils\panicutils.cpp
; File c:\program files (x86)\microsoft visual studio\2017\community\vc\tools\msvc\14.16.27023\include\sstream
; File c:\users\henry\source\repos\otc\otc\otc\cpp\utils\panicutils.cpp
; File c:\program files (x86)\microsoft visual studio\2017\community\vc\tools\msvc\14.16.27023\include\xstring
; File c:\users\henry\source\repos\otc\otc\otc\cpp\utils\panicutils.cpp
; File c:\program files (x86)\microsoft visual studio\2017\community\vc\tools\msvc\14.16.27023\include\xstring
; File c:\users\henry\source\repos\otc\otc\otc\cpp\utils\panicutils.cpp
; File c:\program files (x86)\microsoft visual studio\2017\community\vc\tools\msvc\14.16.27023\include\xstring
; File c:\program files (x86)\microsoft visual studio\2017\community\vc\tools\msvc\14.16.27023\include\xmemory0
; File c:\program files (x86)\microsoft visual studio\2017\community\vc\tools\msvc\14.16.27023\include\xstring
; File c:\program files (x86)\microsoft visual studio\2017\community\vc\tools\msvc\14.16.27023\include\xmemory0
; File c:\users\henry\source\repos\otc\otc\otc\cpp\utils\panicutils.cpp
;	COMDAT ?Release@PanicUtils@@SAXW4Layers@1@PBD@Z
_TEXT	SEGMENT
$T2 = -240						; size = 24
_stream$ = -216						; size = 176
_log$ = -40						; size = 24
__$ArrayPad$ = -16					; size = 4
__$EHRec$ = -12						; size = 12
?Release@PanicUtils@@SAXW4Layers@1@PBD@Z PROC		; PanicUtils::Release, COMDAT
; _layer$ = ecx
; _reason$ = edx

; 18   : void PanicUtils::Release (Layers layer, const char* reason) {

  00000	55		 push	 ebp
  00001	8b ec		 mov	 ebp, esp
  00003	6a ff		 push	 -1
  00005	68 00 00 00 00	 push	 __ehhandler$?Release@PanicUtils@@SAXW4Layers@1@PBD@Z
  0000a	64 a1 00 00 00
	00		 mov	 eax, DWORD PTR fs:0
  00010	50		 push	 eax
  00011	81 ec e4 00 00
	00		 sub	 esp, 228		; 000000e4H
  00017	a1 00 00 00 00	 mov	 eax, DWORD PTR ___security_cookie
  0001c	33 c5		 xor	 eax, ebp
  0001e	89 45 f0	 mov	 DWORD PTR __$ArrayPad$[ebp], eax
  00021	56		 push	 esi
  00022	57		 push	 edi
  00023	50		 push	 eax
  00024	8d 45 f4	 lea	 eax, DWORD PTR __$EHRec$[ebp]
  00027	64 a3 00 00 00
	00		 mov	 DWORD PTR fs:0, eax
  0002d	8b fa		 mov	 edi, edx
  0002f	8b f1		 mov	 esi, ecx
  00031	0f 57 c0	 xorps	 xmm0, xmm0

; 19   : 
; 20   :     // Changing to CONSOLE is strictly not recommended.
; 21   :     // It is possible that the message simply does not have time to be displayed.
; 22   :     Logger log(Logger::LoggerType::FILE);

  00034	8d 4d d8	 lea	 ecx, DWORD PTR _log$[ebp]
  00037	6a 01		 push	 1
  00039	0f 11 45 d8	 movups	 XMMWORD PTR _log$[ebp], xmm0
  0003d	66 0f d6 45 e8	 movq	 QWORD PTR _log$[ebp+16], xmm0
  00042	e8 00 00 00 00	 call	 ??0Logger@@QAE@W4LoggerType@0@@Z ; Logger::Logger
  00047	68 b0 00 00 00	 push	 176			; 000000b0H
  0004c	8d 85 28 ff ff
	ff		 lea	 eax, DWORD PTR _stream$[ebp]
  00052	6a 00		 push	 0
  00054	50		 push	 eax
  00055	e8 00 00 00 00	 call	 _memset

; 23   :     std::stringstream stream;

  0005a	83 c4 04	 add	 esp, 4
  0005d	8d 8d 28 ff ff
	ff		 lea	 ecx, DWORD PTR _stream$[ebp]
  00063	e8 00 00 00 00	 call	 ??0?$basic_stringstream@DU?$char_traits@D@std@@V?$allocator@D@2@@std@@QAE@H@Z ; std::basic_stringstream<char,std::char_traits<char>,std::allocator<char> >::basic_stringstream<char,std::char_traits<char>,std::allocator<char> >

; 24   : 
; 25   :     stream  << "\n"

  00068	ba 00 00 00 00	 mov	 edx, OFFSET ??_C@_01EEMJAFIK@?6@
  0006d	c7 45 fc 00 00
	00 00		 mov	 DWORD PTR __$EHRec$[ebp+8], 0
  00074	8d 8d 38 ff ff
	ff		 lea	 ecx, DWORD PTR _stream$[ebp+16]
  0007a	e8 00 00 00 00	 call	 ??$?6U?$char_traits@D@std@@@std@@YAAAV?$basic_ostream@DU?$char_traits@D@std@@@0@AAV10@PBD@Z ; std::operator<<<std::char_traits<char> >
  0007f	ba 00 00 00 00	 mov	 edx, OFFSET ??_C@_0EE@KHFJPLEA@?$CB?$CB?$CB?$CB?$CB?$CB?$CB?$CB?$CB?$CB?$CB?$CB?$CB?$CB?$CB?$CB?$CB?$CB?$CB?$CB?$CB?$CB?$CB?$CB?$CB?$CB?$CB?$CB?$CB?$CB?5@
  00084	8b c8		 mov	 ecx, eax
  00086	e8 00 00 00 00	 call	 ??$?6U?$char_traits@D@std@@@std@@YAAAV?$basic_ostream@DU?$char_traits@D@std@@@0@AAV10@PBD@Z ; std::operator<<<std::char_traits<char> >
  0008b	ba 00 00 00 00	 mov	 edx, OFFSET ??_C@_01EEMJAFIK@?6@
  00090	8b c8		 mov	 ecx, eax
  00092	e8 00 00 00 00	 call	 ??$?6U?$char_traits@D@std@@@std@@YAAAV?$basic_ostream@DU?$char_traits@D@std@@@0@AAV10@PBD@Z ; std::operator<<<std::char_traits<char> >
  00097	ba 00 00 00 00	 mov	 edx, OFFSET ??_C@_01EEMJAFIK@?6@
  0009c	8b c8		 mov	 ecx, eax
  0009e	e8 00 00 00 00	 call	 ??$?6U?$char_traits@D@std@@@std@@YAAAV?$basic_ostream@DU?$char_traits@D@std@@@0@AAV10@PBD@Z ; std::operator<<<std::char_traits<char> >
  000a3	ba 00 00 00 00	 mov	 edx, OFFSET ??_C@_0EF@ICLOMLHH@If?5you?5see?5this?5message?3?5OTC?5ca@
  000a8	8b c8		 mov	 ecx, eax
  000aa	e8 00 00 00 00	 call	 ??$?6U?$char_traits@D@std@@@std@@YAAAV?$basic_ostream@DU?$char_traits@D@std@@@0@AAV10@PBD@Z ; std::operator<<<std::char_traits<char> >
  000af	ba 00 00 00 00	 mov	 edx, OFFSET ??_C@_01EEMJAFIK@?6@
  000b4	8b c8		 mov	 ecx, eax
  000b6	e8 00 00 00 00	 call	 ??$?6U?$char_traits@D@std@@@std@@YAAAV?$basic_ostream@DU?$char_traits@D@std@@@0@AAV10@PBD@Z ; std::operator<<<std::char_traits<char> >
  000bb	ba 00 00 00 00	 mov	 edx, OFFSET ??_C@_0EF@OFOAANJP@After?5information?5about?5the?5cau@
  000c0	8b c8		 mov	 ecx, eax
  000c2	e8 00 00 00 00	 call	 ??$?6U?$char_traits@D@std@@@std@@YAAAV?$basic_ostream@DU?$char_traits@D@std@@@0@AAV10@PBD@Z ; std::operator<<<std::char_traits<char> >
  000c7	ba 00 00 00 00	 mov	 edx, OFFSET ??_C@_01EEMJAFIK@?6@
  000cc	8b c8		 mov	 ecx, eax
  000ce	e8 00 00 00 00	 call	 ??$?6U?$char_traits@D@std@@@std@@YAAAV?$basic_ostream@DU?$char_traits@D@std@@@0@AAV10@PBD@Z ; std::operator<<<std::char_traits<char> >
  000d3	ba 00 00 00 00	 mov	 edx, OFFSET ??_C@_01EEMJAFIK@?6@
  000d8	8b c8		 mov	 ecx, eax
  000da	e8 00 00 00 00	 call	 ??$?6U?$char_traits@D@std@@@std@@YAAAV?$basic_ostream@DU?$char_traits@D@std@@@0@AAV10@PBD@Z ; std::operator<<<std::char_traits<char> >
  000df	ba 00 00 00 00	 mov	 edx, OFFSET ??_C@_0BM@KFAEANNI@?9?9?9?9?9?9?9?9?9?9?9?5INFO?5?9?9?9?9?9?9?9?9?9?9@
  000e4	8b c8		 mov	 ecx, eax
  000e6	e8 00 00 00 00	 call	 ??$?6U?$char_traits@D@std@@@std@@YAAAV?$basic_ostream@DU?$char_traits@D@std@@@0@AAV10@PBD@Z ; std::operator<<<std::char_traits<char> >
  000eb	ba 00 00 00 00	 mov	 edx, OFFSET ??_C@_01EEMJAFIK@?6@
  000f0	8b c8		 mov	 ecx, eax
  000f2	e8 00 00 00 00	 call	 ??$?6U?$char_traits@D@std@@@std@@YAAAV?$basic_ostream@DU?$char_traits@D@std@@@0@AAV10@PBD@Z ; std::operator<<<std::char_traits<char> >
  000f7	ba 00 00 00 00	 mov	 edx, OFFSET ??_C@_07MJJPDIKC@Layer?3?5@
  000fc	8b c8		 mov	 ecx, eax
  000fe	e8 00 00 00 00	 call	 ??$?6U?$char_traits@D@std@@@std@@YAAAV?$basic_ostream@DU?$char_traits@D@std@@@0@AAV10@PBD@Z ; std::operator<<<std::char_traits<char> >
  00103	56		 push	 esi
  00104	8b c8		 mov	 ecx, eax
  00106	ff 15 00 00 00
	00		 call	 DWORD PTR __imp_??6?$basic_ostream@DU?$char_traits@D@std@@@std@@QAEAAV01@H@Z
  0010c	ba 00 00 00 00	 mov	 edx, OFFSET ??_C@_01LFCBOECM@?4@
  00111	8b c8		 mov	 ecx, eax
  00113	e8 00 00 00 00	 call	 ??$?6U?$char_traits@D@std@@@std@@YAAAV?$basic_ostream@DU?$char_traits@D@std@@@0@AAV10@PBD@Z ; std::operator<<<std::char_traits<char> >
  00118	ba 00 00 00 00	 mov	 edx, OFFSET ??_C@_01EEMJAFIK@?6@
  0011d	8b c8		 mov	 ecx, eax
  0011f	e8 00 00 00 00	 call	 ??$?6U?$char_traits@D@std@@@std@@YAAAV?$basic_ostream@DU?$char_traits@D@std@@@0@AAV10@PBD@Z ; std::operator<<<std::char_traits<char> >
  00124	ba 00 00 00 00	 mov	 edx, OFFSET ??_C@_08IIKACINI@Caused?3?5@
  00129	8b c8		 mov	 ecx, eax
  0012b	e8 00 00 00 00	 call	 ??$?6U?$char_traits@D@std@@@std@@YAAAV?$basic_ostream@DU?$char_traits@D@std@@@0@AAV10@PBD@Z ; std::operator<<<std::char_traits<char> >
  00130	8b d7		 mov	 edx, edi
  00132	8b c8		 mov	 ecx, eax
  00134	e8 00 00 00 00	 call	 ??$?6U?$char_traits@D@std@@@std@@YAAAV?$basic_ostream@DU?$char_traits@D@std@@@0@AAV10@PBD@Z ; std::operator<<<std::char_traits<char> >
  00139	ba 00 00 00 00	 mov	 edx, OFFSET ??_C@_01LFCBOECM@?4@
  0013e	8b c8		 mov	 ecx, eax
  00140	e8 00 00 00 00	 call	 ??$?6U?$char_traits@D@std@@@std@@YAAAV?$basic_ostream@DU?$char_traits@D@std@@@0@AAV10@PBD@Z ; std::operator<<<std::char_traits<char> >
  00145	ba 00 00 00 00	 mov	 edx, OFFSET ??_C@_01EEMJAFIK@?6@
  0014a	8b c8		 mov	 ecx, eax
  0014c	e8 00 00 00 00	 call	 ??$?6U?$char_traits@D@std@@@std@@YAAAV?$basic_ostream@DU?$char_traits@D@std@@@0@AAV10@PBD@Z ; std::operator<<<std::char_traits<char> >
  00151	ba 00 00 00 00	 mov	 edx, OFFSET ??_C@_0BN@PNBNEKLM@?9?9?9?9?9?9?9?9?9?9?9?9?9?9?9?9?9?9?9?9?9?9?9?9?9?9?9?9@
  00156	8b c8		 mov	 ecx, eax
  00158	e8 00 00 00 00	 call	 ??$?6U?$char_traits@D@std@@@std@@YAAAV?$basic_ostream@DU?$char_traits@D@std@@@0@AAV10@PBD@Z ; std::operator<<<std::char_traits<char> >
  0015d	ba 00 00 00 00	 mov	 edx, OFFSET ??_C@_01EEMJAFIK@?6@
  00162	8b c8		 mov	 ecx, eax
  00164	e8 00 00 00 00	 call	 ??$?6U?$char_traits@D@std@@@std@@YAAAV?$basic_ostream@DU?$char_traits@D@std@@@0@AAV10@PBD@Z ; std::operator<<<std::char_traits<char> >
  00169	ba 00 00 00 00	 mov	 edx, OFFSET ??_C@_0BD@IPMJGJLJ@Global?5variables?3?5@
  0016e	8b c8		 mov	 ecx, eax
  00170	e8 00 00 00 00	 call	 ??$?6U?$char_traits@D@std@@@std@@YAAAV?$basic_ostream@DU?$char_traits@D@std@@@0@AAV10@PBD@Z ; std::operator<<<std::char_traits<char> >
  00175	ba 00 00 00 00	 mov	 edx, OFFSET ??_C@_01EEMJAFIK@?6@
  0017a	8b c8		 mov	 ecx, eax
  0017c	e8 00 00 00 00	 call	 ??$?6U?$char_traits@D@std@@@std@@YAAAV?$basic_ostream@DU?$char_traits@D@std@@@0@AAV10@PBD@Z ; std::operator<<<std::char_traits<char> >
  00181	ba 00 00 00 00	 mov	 edx, OFFSET ??_C@_0DM@GOADBMDA@?9?9?9?9?9?9?9?9?9?9?9?9?9?9?9?9?9?9?9?9?9?9?9?9?9?9?9?9?9?9?9@
  00186	8b c8		 mov	 ecx, eax
  00188	e8 00 00 00 00	 call	 ??$?6U?$char_traits@D@std@@@std@@YAAAV?$basic_ostream@DU?$char_traits@D@std@@@0@AAV10@PBD@Z ; std::operator<<<std::char_traits<char> >
  0018d	ba 00 00 00 00	 mov	 edx, OFFSET ??_C@_01EEMJAFIK@?6@
  00192	8b c8		 mov	 ecx, eax
  00194	e8 00 00 00 00	 call	 ??$?6U?$char_traits@D@std@@@std@@YAAAV?$basic_ostream@DU?$char_traits@D@std@@@0@AAV10@PBD@Z ; std::operator<<<std::char_traits<char> >
  00199	ba 00 00 00 00	 mov	 edx, OFFSET ??_C@_0BD@EMEBIIFP@?$FLSEGMENT?$FN?5Module?3?5@
  0019e	8b c8		 mov	 ecx, eax
  001a0	e8 00 00 00 00	 call	 ??$?6U?$char_traits@D@std@@@std@@YAAAV?$basic_ostream@DU?$char_traits@D@std@@@0@AAV10@PBD@Z ; std::operator<<<std::char_traits<char> >
  001a5	ba 00 00 00 00	 mov	 edx, OFFSET ??_C@_02MDDDDAID@0x@
  001aa	8b c8		 mov	 ecx, eax
  001ac	e8 00 00 00 00	 call	 ??$?6U?$char_traits@D@std@@@std@@YAAAV?$basic_ostream@DU?$char_traits@D@std@@@0@AAV10@PBD@Z ; std::operator<<<std::char_traits<char> >
  001b1	68 00 00 00 00	 push	 OFFSET ?uppercase@std@@YAAAVios_base@1@AAV21@@Z ; std::uppercase
  001b6	8b c8		 mov	 ecx, eax
  001b8	ff 15 00 00 00
	00		 call	 DWORD PTR __imp_??6?$basic_ostream@DU?$char_traits@D@std@@@std@@QAEAAV01@P6AAAVios_base@1@AAV21@@Z@Z
  001be	68 00 00 00 00	 push	 OFFSET ?hex@std@@YAAAVios_base@1@AAV21@@Z ; std::hex
  001c3	8b c8		 mov	 ecx, eax
  001c5	ff 15 00 00 00
	00		 call	 DWORD PTR __imp_??6?$basic_ostream@DU?$char_traits@D@std@@@std@@QAEAAV01@P6AAAVios_base@1@AAV21@@Z@Z
  001cb	ff 35 00 00 00
	00		 push	 DWORD PTR ?UnsafeLibraryPointer@Segment@@2KA ; Segment::UnsafeLibraryPointer
  001d1	8b c8		 mov	 ecx, eax
  001d3	ff 15 00 00 00
	00		 call	 DWORD PTR __imp_??6?$basic_ostream@DU?$char_traits@D@std@@@std@@QAEAAV01@K@Z
  001d9	ba 00 00 00 00	 mov	 edx, OFFSET ??_C@_01EEMJAFIK@?6@
  001de	8b c8		 mov	 ecx, eax
  001e0	e8 00 00 00 00	 call	 ??$?6U?$char_traits@D@std@@@std@@YAAAV?$basic_ostream@DU?$char_traits@D@std@@@0@AAV10@PBD@Z ; std::operator<<<std::char_traits<char> >
  001e5	ba 00 00 00 00	 mov	 edx, OFFSET ??_C@_0BH@JGFIANLP@?$FLSEGMENT?$FN?5Allocation?3?5@
  001ea	8b c8		 mov	 ecx, eax
  001ec	e8 00 00 00 00	 call	 ??$?6U?$char_traits@D@std@@@std@@YAAAV?$basic_ostream@DU?$char_traits@D@std@@@0@AAV10@PBD@Z ; std::operator<<<std::char_traits<char> >
  001f1	ba 00 00 00 00	 mov	 edx, OFFSET ??_C@_02MDDDDAID@0x@
  001f6	8b c8		 mov	 ecx, eax
  001f8	e8 00 00 00 00	 call	 ??$?6U?$char_traits@D@std@@@std@@YAAAV?$basic_ostream@DU?$char_traits@D@std@@@0@AAV10@PBD@Z ; std::operator<<<std::char_traits<char> >
  001fd	68 00 00 00 00	 push	 OFFSET ?uppercase@std@@YAAAVios_base@1@AAV21@@Z ; std::uppercase
  00202	8b c8		 mov	 ecx, eax
  00204	ff 15 00 00 00
	00		 call	 DWORD PTR __imp_??6?$basic_ostream@DU?$char_traits@D@std@@@std@@QAEAAV01@P6AAAVios_base@1@AAV21@@Z@Z
  0020a	68 00 00 00 00	 push	 OFFSET ?hex@std@@YAAAVios_base@1@AAV21@@Z ; std::hex
  0020f	8b c8		 mov	 ecx, eax
  00211	ff 15 00 00 00
	00		 call	 DWORD PTR __imp_??6?$basic_ostream@DU?$char_traits@D@std@@@std@@QAEAAV01@P6AAAVios_base@1@AAV21@@Z@Z
  00217	ff 35 00 00 00
	00		 push	 DWORD PTR ?UnsafeAllocatedPointer@Segment@@2KA ; Segment::UnsafeAllocatedPointer
  0021d	8b c8		 mov	 ecx, eax
  0021f	ff 15 00 00 00
	00		 call	 DWORD PTR __imp_??6?$basic_ostream@DU?$char_traits@D@std@@@std@@QAEAAV01@K@Z
  00225	ba 00 00 00 00	 mov	 edx, OFFSET ??_C@_01EEMJAFIK@?6@
  0022a	8b c8		 mov	 ecx, eax
  0022c	e8 00 00 00 00	 call	 ??$?6U?$char_traits@D@std@@@std@@YAAAV?$basic_ostream@DU?$char_traits@D@std@@@0@AAV10@PBD@Z ; std::operator<<<std::char_traits<char> >
  00231	ba 00 00 00 00	 mov	 edx, OFFSET ??_C@_0DM@GOADBMDA@?9?9?9?9?9?9?9?9?9?9?9?9?9?9?9?9?9?9?9?9?9?9?9?9?9?9?9?9?9?9?9@
  00236	8b c8		 mov	 ecx, eax
  00238	e8 00 00 00 00	 call	 ??$?6U?$char_traits@D@std@@@std@@YAAAV?$basic_ostream@DU?$char_traits@D@std@@@0@AAV10@PBD@Z ; std::operator<<<std::char_traits<char> >
  0023d	ba 00 00 00 00	 mov	 edx, OFFSET ??_C@_01EEMJAFIK@?6@
  00242	8b c8		 mov	 ecx, eax
  00244	e8 00 00 00 00	 call	 ??$?6U?$char_traits@D@std@@@std@@YAAAV?$basic_ostream@DU?$char_traits@D@std@@@0@AAV10@PBD@Z ; std::operator<<<std::char_traits<char> >
  00249	ba 00 00 00 00	 mov	 edx, OFFSET ??_C@_01EEMJAFIK@?6@
  0024e	8b c8		 mov	 ecx, eax
  00250	e8 00 00 00 00	 call	 ??$?6U?$char_traits@D@std@@@std@@YAAAV?$basic_ostream@DU?$char_traits@D@std@@@0@AAV10@PBD@Z ; std::operator<<<std::char_traits<char> >
  00255	ba 00 00 00 00	 mov	 edx, OFFSET ??_C@_0FO@HCNJJPPM@Send?5this?5log?5to?5the?5developer?5@
  0025a	8b c8		 mov	 ecx, eax
  0025c	e8 00 00 00 00	 call	 ??$?6U?$char_traits@D@std@@@std@@YAAAV?$basic_ostream@DU?$char_traits@D@std@@@0@AAV10@PBD@Z ; std::operator<<<std::char_traits<char> >
  00261	ba 00 00 00 00	 mov	 edx, OFFSET ??_C@_01EEMJAFIK@?6@
  00266	8b c8		 mov	 ecx, eax
  00268	e8 00 00 00 00	 call	 ??$?6U?$char_traits@D@std@@@std@@YAAAV?$basic_ostream@DU?$char_traits@D@std@@@0@AAV10@PBD@Z ; std::operator<<<std::char_traits<char> >
  0026d	ba 00 00 00 00	 mov	 edx, OFFSET ??_C@_0EE@KHFJPLEA@?$CB?$CB?$CB?$CB?$CB?$CB?$CB?$CB?$CB?$CB?$CB?$CB?$CB?$CB?$CB?$CB?$CB?$CB?$CB?$CB?$CB?$CB?$CB?$CB?$CB?$CB?$CB?$CB?$CB?$CB?5@
  00272	8b c8		 mov	 ecx, eax
  00274	e8 00 00 00 00	 call	 ??$?6U?$char_traits@D@std@@@std@@YAAAV?$basic_ostream@DU?$char_traits@D@std@@@0@AAV10@PBD@Z ; std::operator<<<std::char_traits<char> >
  00279	ba 00 00 00 00	 mov	 edx, OFFSET ??_C@_01EEMJAFIK@?6@
  0027e	8b c8		 mov	 ecx, eax
  00280	e8 00 00 00 00	 call	 ??$?6U?$char_traits@D@std@@@std@@YAAAV?$basic_ostream@DU?$char_traits@D@std@@@0@AAV10@PBD@Z ; std::operator<<<std::char_traits<char> >

; 26   :     << "!!!!!!!!!!!!!!!!!!!!!!!!!!!!!! PANIC !!!!!!!!!!!!!!!!!!!!!!!!!!!!!!" 
; 27   :     << "\n" << "\n"
; 28   :     << "If you see this message: OTC cannot find a way out of the situation." 
; 29   :     << "\n"
; 30   :     << "After information about the cause of the error, CSGO will be frozen."
; 31   :     << "\n" << "\n"
; 32   :     << "----------- INFO ----------" << "\n"
; 33   :     << "Layer: " << layer << "." << "\n"
; 34   :     << "Caused: " << reason << "." << "\n"
; 35   :     << "----------------------------" << "\n"
; 36   :     << "Global variables: " << "\n"
; 37   :     << "-----------------------------------------------------------" << "\n"
; 38   :     << "[SEGMENT] Module: " << "0x" << std::uppercase << std::hex << Segment::UnsafeLibraryPointer << "\n"
; 39   :     << "[SEGMENT] Allocation: " << "0x" << std::uppercase << std::hex << Segment::UnsafeAllocatedPointer << "\n"
; 40   :     << "-----------------------------------------------------------"
; 41   :     << "\n" << "\n"
; 42   :     << "Send this log to the developer or try connecting a debugger and find out what the problem is." << "\n"
; 43   :     << "!!!!!!!!!!!!!!!!!!!!!!!!!!!!!! PANIC !!!!!!!!!!!!!!!!!!!!!!!!!!!!!!" << "\n"
; 44   :     ;
; 45   : 
; 46   :     log.SwitchedInfo ("_Panic");

  00285	8d 45 d8	 lea	 eax, DWORD PTR _log$[ebp]
  00288	68 00 00 00 00	 push	 OFFSET ??_C@_06MNPNKHCO@_Panic@
  0028d	50		 push	 eax
  0028e	e8 00 00 00 00	 call	 ?SwitchedInfo@Logger@@QAAXPBDZZ ; Logger::SwitchedInfo

; 47   :     log.SwitchedInfo ("If you see this message: OTC cannot find a way out of the situation.");

  00293	8d 45 d8	 lea	 eax, DWORD PTR _log$[ebp]
  00296	68 00 00 00 00	 push	 OFFSET ??_C@_0EF@ICLOMLHH@If?5you?5see?5this?5message?3?5OTC?5ca@
  0029b	50		 push	 eax
  0029c	e8 00 00 00 00	 call	 ?SwitchedInfo@Logger@@QAAXPBDZZ ; Logger::SwitchedInfo

; 48   :     log.SwitchedInfo ("Log may at document folder.");

  002a1	8d 45 d8	 lea	 eax, DWORD PTR _log$[ebp]
  002a4	68 00 00 00 00	 push	 OFFSET ??_C@_0BM@DKGLMJLA@Log?5may?5at?5document?5folder?4@
  002a9	50		 push	 eax
  002aa	e8 00 00 00 00	 call	 ?SwitchedInfo@Logger@@QAAXPBDZZ ; Logger::SwitchedInfo
  002af	83 c4 18	 add	 esp, 24			; 00000018H
; File c:\program files (x86)\microsoft visual studio\2017\community\vc\tools\msvc\14.16.27023\include\sstream

; 721  : 		return (_Stringbuffer.str());

  002b2	8d 85 10 ff ff
	ff		 lea	 eax, DWORD PTR $T2[ebp]
  002b8	50		 push	 eax
  002b9	8d 8d 40 ff ff
	ff		 lea	 ecx, DWORD PTR _stream$[ebp+24]
  002bf	e8 00 00 00 00	 call	 ?str@?$basic_stringbuf@DU?$char_traits@D@std@@V?$allocator@D@2@@std@@QBE?AV?$basic_string@DU?$char_traits@D@std@@V?$allocator@D@2@@2@XZ ; std::basic_stringbuf<char,std::char_traits<char>,std::allocator<char> >::str
; File c:\users\henry\source\repos\otc\otc\otc\cpp\utils\panicutils.cpp

; 49   :     log.Info (stream.str().c_str());

  002c4	c6 45 fc 01	 mov	 BYTE PTR __$EHRec$[ebp+8], 1
; File c:\program files (x86)\microsoft visual studio\2017\community\vc\tools\msvc\14.16.27023\include\xstring

; 1814 : 		const value_type * _Result = _Bx._Buf;

  002c8	8d 85 10 ff ff
	ff		 lea	 eax, DWORD PTR $T2[ebp]

; 1825 : 		return (_BUF_SIZE <= _Myres);

  002ce	83 bd 24 ff ff
	ff 10		 cmp	 DWORD PTR $T2[ebp+20], 16 ; 00000010H

; 1815 : 		if (_Large_string_engaged())

  002d5	0f 43 85 10 ff
	ff ff		 cmovae	 eax, DWORD PTR $T2[ebp]
; File c:\users\henry\source\repos\otc\otc\otc\cpp\utils\panicutils.cpp

; 49   :     log.Info (stream.str().c_str());

  002dc	50		 push	 eax
  002dd	8d 45 d8	 lea	 eax, DWORD PTR _log$[ebp]
  002e0	50		 push	 eax
  002e1	e8 00 00 00 00	 call	 ?Info@Logger@@QAAXPBDZZ	; Logger::Info
; File c:\program files (x86)\microsoft visual studio\2017\community\vc\tools\msvc\14.16.27023\include\xstring

; 1825 : 		return (_BUF_SIZE <= _Myres);

  002e6	8b 95 24 ff ff
	ff		 mov	 edx, DWORD PTR $T2[ebp+20]
; File c:\users\henry\source\repos\otc\otc\otc\cpp\utils\panicutils.cpp

; 49   :     log.Info (stream.str().c_str());

  002ec	83 c4 08	 add	 esp, 8
; File c:\program files (x86)\microsoft visual studio\2017\community\vc\tools\msvc\14.16.27023\include\xstring

; 1825 : 		return (_BUF_SIZE <= _Myres);

  002ef	83 fa 10	 cmp	 edx, 16			; 00000010H

; 3987 : 		if (_My_data._Large_string_engaged())

  002f2	72 31		 jb	 SHORT $LN71@Release
; File c:\program files (x86)\microsoft visual studio\2017\community\vc\tools\msvc\14.16.27023\include\xmemory0

; 992  : 		_Deallocate<_New_alignof<_Ty>>(_Ptr, sizeof(_Ty) * _Count);

  002f4	8b 8d 10 ff ff
	ff		 mov	 ecx, DWORD PTR $T2[ebp]
; File c:\program files (x86)\microsoft visual studio\2017\community\vc\tools\msvc\14.16.27023\include\xstring

; 3992 : 			_Al.deallocate(_Ptr, _My_data._Myres + 1);

  002fa	42		 inc	 edx
; File c:\program files (x86)\microsoft visual studio\2017\community\vc\tools\msvc\14.16.27023\include\xmemory0

; 992  : 		_Deallocate<_New_alignof<_Ty>>(_Ptr, sizeof(_Ty) * _Count);

  002fb	8b c1		 mov	 eax, ecx

; 201  : 	if (_Bytes >= _Big_allocation_threshold)

  002fd	81 fa 00 10 00
	00		 cmp	 edx, 4096		; 00001000H
  00303	72 16		 jb	 SHORT $LN70@Release

; 118  : 	const uintptr_t _Ptr_container = _Ptr_user[-1];

  00305	8b 49 fc	 mov	 ecx, DWORD PTR [ecx-4]
  00308	83 c2 23	 add	 edx, 35			; 00000023H
  0030b	2b c1		 sub	 eax, ecx

; 119  : 
; 120  : 	// If the following asserts, it likely means that we are performing
; 121  : 	// an aligned delete on memory coming from an unaligned allocation.
; 122  : 	_STL_ASSERT(_Ptr_user[-2] == _Big_allocation_sentinel, "invalid argument");
; 123  : 
; 124  : 	// Extra paranoia on aligned allocation/deallocation; ensure _Ptr_container is
; 125  : 	// in range [_Min_back_shift, _Non_user_size]
; 126  :   #ifdef _DEBUG
; 127  : 	constexpr uintptr_t _Min_back_shift = 2 * sizeof(void *);
; 128  :   #else /* ^^^ _DEBUG ^^^ // vvv !_DEBUG vvv */
; 129  : 	constexpr uintptr_t _Min_back_shift = sizeof(void *);
; 130  :   #endif /* _DEBUG */
; 131  : 	const uintptr_t _Back_shift = reinterpret_cast<uintptr_t>(_Ptr) - _Ptr_container;
; 132  : 	_STL_VERIFY(_Back_shift >= _Min_back_shift && _Back_shift <= _Non_user_size, "invalid argument");

  0030d	83 c0 fc	 add	 eax, -4			; fffffffcH
  00310	83 f8 1f	 cmp	 eax, 31			; 0000001fH
  00313	76 06		 jbe	 SHORT $LN70@Release
  00315	ff 15 00 00 00
	00		 call	 DWORD PTR __imp___invalid_parameter_noinfo_noreturn
$LN70@Release:

; 207  : 	::operator delete(_Ptr, _Bytes);

  0031b	52		 push	 edx
  0031c	51		 push	 ecx
  0031d	e8 00 00 00 00	 call	 ??3@YAXPAXI@Z		; operator delete
  00322	83 c4 08	 add	 esp, 8
$LN71@Release:
; File c:\users\henry\source\repos\otc\otc\otc\cpp\utils\panicutils.cpp

; 51   :     if (!Segment::UnsafeLibraryPointer) {

  00325	a1 00 00 00 00	 mov	 eax, DWORD PTR ?UnsafeLibraryPointer@Segment@@2KA ; Segment::UnsafeLibraryPointer
  0032a	85 c0		 test	 eax, eax
  0032c	75 0b		 jne	 SHORT $LN2@Release

; 52   :         //Debug to process and watch exit code for get solution!
; 53   :         ExitProcess (0xFFFA1);

  0032e	68 a1 ff 0f 00	 push	 1048481			; 000fffa1H
  00333	ff 15 00 00 00
	00		 call	 DWORD PTR __imp__ExitProcess@4
$LN2@Release:

; 54   :     }
; 55   : 
; 56   :     if (!Segment::UnsafeAllocatedPointer) {

  00339	8b 0d 00 00 00
	00		 mov	 ecx, DWORD PTR ?UnsafeAllocatedPointer@Segment@@2KA ; Segment::UnsafeAllocatedPointer
  0033f	85 c9		 test	 ecx, ecx
  00341	75 08		 jne	 SHORT $LN3@Release

; 57   :         FreeLibraryAndExitThread (reinterpret_cast<HMODULE> (Segment::UnsafeLibraryPointer), NULL);

  00343	51		 push	 ecx
  00344	50		 push	 eax
  00345	ff 15 00 00 00
	00		 call	 DWORD PTR __imp__FreeLibraryAndExitThread@8
$LN3@Release:

; 58   :     }
; 59   : 
; 60   :     VirtualFree (reinterpret_cast<LPVOID> (Segment::UnsafeAllocatedPointer), NULL, MEM_RELEASE);

  0034b	68 00 80 00 00	 push	 32768			; 00008000H
  00350	6a 00		 push	 0
  00352	51		 push	 ecx
  00353	ff 15 00 00 00
	00		 call	 DWORD PTR __imp__VirtualFree@12

; 61   :     //Froze for read log.
; 62   :     ExitThread (0);

  00359	6a 00		 push	 0
  0035b	ff 15 00 00 00
	00		 call	 DWORD PTR __imp__ExitThread@4
$LN90@Release:
  00361	cc		 int	 3
_TEXT	ENDS
;	COMDAT text$x
text$x	SEGMENT
__unwindfunclet$?Release@PanicUtils@@SAXW4Layers@1@PBD@Z$0:
  00000	8d 8d 28 ff ff
	ff		 lea	 ecx, DWORD PTR _stream$[ebp]
  00006	e9 00 00 00 00	 jmp	 ??_D?$basic_stringstream@DU?$char_traits@D@std@@V?$allocator@D@2@@std@@QAEXXZ
__unwindfunclet$?Release@PanicUtils@@SAXW4Layers@1@PBD@Z$1:
  0000b	8d 8d 10 ff ff
	ff		 lea	 ecx, DWORD PTR $T2[ebp]
  00011	e9 00 00 00 00	 jmp	 ??1?$basic_string@DU?$char_traits@D@std@@V?$allocator@D@2@@std@@QAE@XZ ; std::basic_string<char,std::char_traits<char>,std::allocator<char> >::~basic_string<char,std::char_traits<char>,std::allocator<char> >
__ehhandler$?Release@PanicUtils@@SAXW4Layers@1@PBD@Z:
  00016	8b 54 24 08	 mov	 edx, DWORD PTR [esp+8]
  0001a	8d 42 0c	 lea	 eax, DWORD PTR [edx+12]
  0001d	8b 8a 10 ff ff
	ff		 mov	 ecx, DWORD PTR [edx-240]
  00023	33 c8		 xor	 ecx, eax
  00025	e8 00 00 00 00	 call	 @__security_check_cookie@4
  0002a	8b 4a fc	 mov	 ecx, DWORD PTR [edx-4]
  0002d	33 c8		 xor	 ecx, eax
  0002f	e8 00 00 00 00	 call	 @__security_check_cookie@4
  00034	b8 00 00 00 00	 mov	 eax, OFFSET __ehfuncinfo$?Release@PanicUtils@@SAXW4Layers@1@PBD@Z
  00039	e9 00 00 00 00	 jmp	 ___CxxFrameHandler3
text$x	ENDS
?Release@PanicUtils@@SAXW4Layers@1@PBD@Z ENDP		; PanicUtils::Release
; Function compile flags: /Ogtp
; File c:\users\henry\source\repos\otc\otc\otc\cpp\utils\panicutils.cpp
;	COMDAT ?SetImportant@PanicUtils@@SAXPAKKPBD@Z
_TEXT	SEGMENT
_reason$dead$ = 8					; size = 4
?SetImportant@PanicUtils@@SAXPAKKPBD@Z PROC		; PanicUtils::SetImportant, COMDAT
; _variable$ = ecx
; _value$ = edx

; 4    :     if (variable && value) {

  00000	85 c9		 test	 ecx, ecx
  00002	74 07		 je	 SHORT $LN2@SetImporta
  00004	85 d2		 test	 edx, edx
  00006	74 03		 je	 SHORT $LN2@SetImporta

; 5    :         *variable = value;

  00008	89 11		 mov	 DWORD PTR [ecx], edx

; 9    :     }
; 10   : }

  0000a	c3		 ret	 0
$LN2@SetImporta:

; 6    :     }
; 7    :     else {
; 8    :         PanicUtils::Release (Layers::ROUTINE, reason);

  0000b	ba 00 00 00 00	 mov	 edx, OFFSET ??_C@_0BL@CHOBNDMJ@Variable?5or?5value?5is?5null?4@
  00010	b9 01 00 00 00	 mov	 ecx, 1
  00015	e9 00 00 00 00	 jmp	 ?Release@PanicUtils@@SAXW4Layers@1@PBD@Z ; PanicUtils::Release
?SetImportant@PanicUtils@@SAXPAKKPBD@Z ENDP		; PanicUtils::SetImportant
_TEXT	ENDS
; Function compile flags: /Ogtp
; File c:\program files (x86)\microsoft visual studio\2017\community\vc\tools\msvc\14.16.27023\include\ios
; File c:\program files (x86)\microsoft visual studio\2017\community\vc\tools\msvc\14.16.27023\include\xiosbase
; File c:\program files (x86)\microsoft visual studio\2017\community\vc\tools\msvc\14.16.27023\include\ios
;	COMDAT ?hex@std@@YAAAVios_base@1@AAV21@@Z
_TEXT	SEGMENT
__Iosbase$ = 8						; size = 4
?hex@std@@YAAAVios_base@1@AAV21@@Z PROC			; std::hex, COMDAT

; 231  : 	{	// set basefield to hex

  00000	55		 push	 ebp
  00001	8b ec		 mov	 ebp, esp
; File c:\program files (x86)\microsoft visual studio\2017\community\vc\tools\msvc\14.16.27023\include\xiosbase

; 409  : 		const ios_base::fmtflags _Oldfmtflags = _Fmtfl;

  00003	8b 45 08	 mov	 eax, DWORD PTR __Iosbase$[ebp]

; 410  : 		_Fmtfl = (_Oldfmtflags & ~_Mask) | (_Newfmtflags & _Mask & _Fmtmask);

  00006	8b 48 14	 mov	 ecx, DWORD PTR [eax+20]
  00009	81 e1 ff f9 ff
	ff		 and	 ecx, -1537		; fffff9ffH
  0000f	81 c9 00 08 00
	00		 or	 ecx, 2048		; 00000800H
  00015	89 48 14	 mov	 DWORD PTR [eax+20], ecx
; File c:\program files (x86)\microsoft visual studio\2017\community\vc\tools\msvc\14.16.27023\include\ios

; 234  : 	}

  00018	5d		 pop	 ebp
  00019	c3		 ret	 0
?hex@std@@YAAAVios_base@1@AAV21@@Z ENDP			; std::hex
_TEXT	ENDS
; Function compile flags: /Ogtp
; File c:\program files (x86)\microsoft visual studio\2017\community\vc\tools\msvc\14.16.27023\include\ios
; File c:\program files (x86)\microsoft visual studio\2017\community\vc\tools\msvc\14.16.27023\include\xiosbase
; File c:\program files (x86)\microsoft visual studio\2017\community\vc\tools\msvc\14.16.27023\include\ios
;	COMDAT ?uppercase@std@@YAAAVios_base@1@AAV21@@Z
_TEXT	SEGMENT
__Iosbase$ = 8						; size = 4
?uppercase@std@@YAAAVios_base@1@AAV21@@Z PROC		; std::uppercase, COMDAT

; 345  : 	{	// set uppercase

  00000	55		 push	 ebp
  00001	8b ec		 mov	 ebp, esp
; File c:\program files (x86)\microsoft visual studio\2017\community\vc\tools\msvc\14.16.27023\include\xiosbase

; 403  : 		_Fmtfl |= _Newfmtflags & _Fmtmask;

  00003	8b 45 08	 mov	 eax, DWORD PTR __Iosbase$[ebp]
  00006	83 48 14 04	 or	 DWORD PTR [eax+20], 4
; File c:\program files (x86)\microsoft visual studio\2017\community\vc\tools\msvc\14.16.27023\include\ios

; 348  : 	}

  0000a	5d		 pop	 ebp
  0000b	c3		 ret	 0
?uppercase@std@@YAAAVios_base@1@AAV21@@Z ENDP		; std::uppercase
_TEXT	ENDS
; Function compile flags: /Ogtp
; File c:\users\henry\source\repos\otc\otc\otc\headers\runtime\logger.h
; File c:\users\henry\source\repos\otc\otc\otc\cpp\utils\utils.cpp
; File c:\users\henry\source\repos\otc\otc\otc\headers\runtime\logger.h
; File c:\users\henry\source\repos\otc\otc\otc\cpp\utils\utils.cpp
; File c:\users\henry\source\repos\otc\otc\otc\headers\runtime\logger.h
; File c:\users\henry\source\repos\otc\otc\otc\cpp\runtime\logger.cpp
; File c:\users\henry\source\repos\otc\otc\otc\headers\runtime\logger.h
;	COMDAT ??0Logger@@QAE@W4LoggerType@0@@Z
_TEXT	SEGMENT
_type$ = 8						; size = 4
??0Logger@@QAE@W4LoggerType@0@@Z PROC			; Logger::Logger, COMDAT
; _this$ = ecx

; 25   : 	Logger (LoggerType type) {

  00000	55		 push	 ebp
  00001	8b ec		 mov	 ebp, esp
  00003	56		 push	 esi
  00004	57		 push	 edi
; File c:\users\henry\source\repos\otc\otc\otc\cpp\utils\utils.cpp

; 5    :    HMODULE hModule = GetModuleHandleA (module);

  00005	68 00 00 00 00	 push	 OFFSET ??_C@_09LGKBAKDK@tier0?4dll@
; File c:\users\henry\source\repos\otc\otc\otc\headers\runtime\logger.h

; 25   : 	Logger (LoggerType type) {

  0000a	8b f1		 mov	 esi, ecx
; File c:\users\henry\source\repos\otc\otc\otc\cpp\utils\utils.cpp

; 5    :    HMODULE hModule = GetModuleHandleA (module);

  0000c	ff 15 00 00 00
	00		 call	 DWORD PTR __imp__GetModuleHandleA@4

; 6    : 
; 7    :    if (!hModule) {

  00012	8b 3d 00 00 00
	00		 mov	 edi, DWORD PTR __imp__LoadLibraryA@4
  00018	85 c0		 test	 eax, eax
  0001a	75 07		 jne	 SHORT $LN11@Logger

; 8    :        hModule = LoadLibraryA (module);

  0001c	68 00 00 00 00	 push	 OFFSET ??_C@_09LGKBAKDK@tier0?4dll@
  00021	ff d7		 call	 edi
$LN11@Logger:

; 24   :    return reinterpret_cast<DWORD> (GetProcAddress(GetModule(module), function));

  00023	68 00 00 00 00	 push	 OFFSET ??_C@_03MLMOILGK@Msg@
  00028	50		 push	 eax
  00029	ff 15 00 00 00
	00		 call	 DWORD PTR __imp__GetProcAddress@8

; 5    :    HMODULE hModule = GetModuleHandleA (module);

  0002f	68 00 00 00 00	 push	 OFFSET ??_C@_0L@EMPDFJNI@engine?4dll@
  00034	89 06		 mov	 DWORD PTR [esi], eax
  00036	ff 15 00 00 00
	00		 call	 DWORD PTR __imp__GetModuleHandleA@4

; 6    : 
; 7    :    if (!hModule) {

  0003c	85 c0		 test	 eax, eax
  0003e	75 07		 jne	 SHORT $LN16@Logger

; 8    :        hModule = LoadLibraryA (module);

  00040	68 00 00 00 00	 push	 OFFSET ??_C@_0L@EMPDFJNI@engine?4dll@
  00045	ff d7		 call	 edi
$LN16@Logger:

; 24   :    return reinterpret_cast<DWORD> (GetProcAddress(GetModule(module), function));

  00047	68 00 00 00 00	 push	 OFFSET ??_C@_0BA@OBHPCBFP@CreateInterface@
  0004c	50		 push	 eax
  0004d	ff 15 00 00 00
	00		 call	 DWORD PTR __imp__GetProcAddress@8
  00053	6a 00		 push	 0
  00055	68 00 00 00 00	 push	 OFFSET ??_C@_0BB@CJDLPJJP@VEngineClient014@
  0005a	89 46 04	 mov	 DWORD PTR [esi+4], eax
  0005d	ff d0		 call	 eax
  0005f	89 46 08	 mov	 DWORD PTR [esi+8], eax
  00062	83 c4 08	 add	 esp, 8
  00065	83 3e 00	 cmp	 DWORD PTR [esi], 0
  00068	8b 08		 mov	 ecx, DWORD PTR [eax]
  0006a	8b 91 b0 01 00
	00		 mov	 edx, DWORD PTR [ecx+432]
  00070	89 56 0c	 mov	 DWORD PTR [esi+12], edx
  00073	74 15		 je	 SHORT $LN6@Logger
  00075	83 7e 04 00	 cmp	 DWORD PTR [esi+4], 0
  00079	74 0f		 je	 SHORT $LN6@Logger
  0007b	85 c0		 test	 eax, eax
  0007d	74 0b		 je	 SHORT $LN6@Logger
  0007f	85 d2		 test	 edx, edx
  00081	74 07		 je	 SHORT $LN6@Logger
  00083	b8 01 00 00 00	 mov	 eax, 1
  00088	eb 02		 jmp	 SHORT $LN7@Logger
$LN6@Logger:
  0008a	33 c0		 xor	 eax, eax
$LN7@Logger:
; File c:\users\henry\source\repos\otc\otc\otc\headers\runtime\logger.h

; 26   : 		if (type == LoggerType::CONSOLE) Setup ();

  0008c	8b 7d 08	 mov	 edi, DWORD PTR _type$[ebp]
  0008f	89 46 10	 mov	 DWORD PTR [esi+16], eax
  00092	85 ff		 test	 edi, edi
  00094	75 21		 jne	 SHORT $LN25@Logger
; File c:\users\henry\source\repos\otc\otc\otc\cpp\runtime\logger.cpp

; 8    : 	if (m_Type == CONSOLE) {

  00096	39 7e 14	 cmp	 DWORD PTR [esi+20], edi
  00099	75 1c		 jne	 SHORT $LN25@Logger

; 9    : 		if (!m_Game.m_IsInterfacesAvailable) PanicUtils::Release (PanicUtils::Layers::INIT, "GameInterfaces is null. Can't initialize the logger.");

  0009b	85 c0		 test	 eax, eax
  0009d	75 0f		 jne	 SHORT $LN20@Logger
  0009f	ba 00 00 00 00	 mov	 edx, OFFSET ??_C@_0DF@OFKJIDHJ@GameInterfaces?5is?5null?4?5Can?8t?5i@
  000a4	33 c9		 xor	 ecx, ecx
  000a6	e8 00 00 00 00	 call	 ?Release@PanicUtils@@SAXW4Layers@1@PBD@Z ; PanicUtils::Release
  000ab	8b 56 0c	 mov	 edx, DWORD PTR [esi+12]
$LN20@Logger:

; 10   : 		m_Game.AtConsoleInterface () (NULL, "showconsole; log_color General 0xFFFFFFFF; clear");

  000ae	68 00 00 00 00	 push	 OFFSET ??_C@_0DB@MJIOIOJA@showconsole?$DL?5log_color?5General?5@
  000b3	33 c9		 xor	 ecx, ecx
  000b5	ff d2		 call	 edx
$LN25@Logger:
; File c:\users\henry\source\repos\otc\otc\otc\headers\runtime\logger.h

; 28   : 	}

  000b7	89 7e 14	 mov	 DWORD PTR [esi+20], edi
  000ba	8b c6		 mov	 eax, esi
  000bc	5f		 pop	 edi
  000bd	5e		 pop	 esi
  000be	5d		 pop	 ebp
  000bf	c2 04 00	 ret	 4
??0Logger@@QAE@W4LoggerType@0@@Z ENDP			; Logger::Logger
_TEXT	ENDS
; Function compile flags: /Ogtp
; File c:\users\henry\source\repos\otc\otc\otc\cpp\utils\utils.cpp
;	COMDAT ??0GameFramework@@QAE@XZ
_TEXT	SEGMENT
??0GameFramework@@QAE@XZ PROC				; GameFramework::GameFramework, COMDAT
; _this$ = ecx

; 5    :    HMODULE hModule = GetModuleHandleA (module);

  00000	56		 push	 esi
  00001	68 00 00 00 00	 push	 OFFSET ??_C@_09LGKBAKDK@tier0?4dll@
  00006	8b f1		 mov	 esi, ecx
  00008	ff 15 00 00 00
	00		 call	 DWORD PTR __imp__GetModuleHandleA@4

; 6    : 
; 7    :    if (!hModule) {

  0000e	85 c0		 test	 eax, eax
  00010	75 0b		 jne	 SHORT $LN8@GameFramew

; 8    :        hModule = LoadLibraryA (module);

  00012	68 00 00 00 00	 push	 OFFSET ??_C@_09LGKBAKDK@tier0?4dll@
  00017	ff 15 00 00 00
	00		 call	 DWORD PTR __imp__LoadLibraryA@4
$LN8@GameFramew:

; 24   :    return reinterpret_cast<DWORD> (GetProcAddress(GetModule(module), function));

  0001d	68 00 00 00 00	 push	 OFFSET ??_C@_03MLMOILGK@Msg@
  00022	50		 push	 eax
  00023	ff 15 00 00 00
	00		 call	 DWORD PTR __imp__GetProcAddress@8

; 5    :    HMODULE hModule = GetModuleHandleA (module);

  00029	68 00 00 00 00	 push	 OFFSET ??_C@_0L@EMPDFJNI@engine?4dll@
  0002e	89 06		 mov	 DWORD PTR [esi], eax
  00030	ff 15 00 00 00
	00		 call	 DWORD PTR __imp__GetModuleHandleA@4

; 6    : 
; 7    :    if (!hModule) {

  00036	85 c0		 test	 eax, eax
  00038	75 0b		 jne	 SHORT $LN13@GameFramew

; 8    :        hModule = LoadLibraryA (module);

  0003a	68 00 00 00 00	 push	 OFFSET ??_C@_0L@EMPDFJNI@engine?4dll@
  0003f	ff 15 00 00 00
	00		 call	 DWORD PTR __imp__LoadLibraryA@4
$LN13@GameFramew:

; 24   :    return reinterpret_cast<DWORD> (GetProcAddress(GetModule(module), function));

  00045	68 00 00 00 00	 push	 OFFSET ??_C@_0BA@OBHPCBFP@CreateInterface@
  0004a	50		 push	 eax
  0004b	ff 15 00 00 00
	00		 call	 DWORD PTR __imp__GetProcAddress@8
  00051	6a 00		 push	 0
  00053	68 00 00 00 00	 push	 OFFSET ??_C@_0BB@CJDLPJJP@VEngineClient014@
  00058	89 46 04	 mov	 DWORD PTR [esi+4], eax
  0005b	ff d0		 call	 eax
  0005d	89 46 08	 mov	 DWORD PTR [esi+8], eax
  00060	83 c4 08	 add	 esp, 8
  00063	83 3e 00	 cmp	 DWORD PTR [esi], 0
  00066	8b 08		 mov	 ecx, DWORD PTR [eax]
  00068	8b 89 b0 01 00
	00		 mov	 ecx, DWORD PTR [ecx+432]
  0006e	89 4e 0c	 mov	 DWORD PTR [esi+12], ecx
  00071	74 19		 je	 SHORT $LN3@GameFramew
  00073	83 7e 04 00	 cmp	 DWORD PTR [esi+4], 0
  00077	74 13		 je	 SHORT $LN3@GameFramew
  00079	85 c0		 test	 eax, eax
  0007b	74 0f		 je	 SHORT $LN3@GameFramew
  0007d	85 c9		 test	 ecx, ecx
  0007f	74 0b		 je	 SHORT $LN3@GameFramew
  00081	c7 46 10 01 00
	00 00		 mov	 DWORD PTR [esi+16], 1
  00088	8b c6		 mov	 eax, esi
  0008a	5e		 pop	 esi
  0008b	c3		 ret	 0
$LN3@GameFramew:
  0008c	c7 46 10 00 00
	00 00		 mov	 DWORD PTR [esi+16], 0
  00093	8b c6		 mov	 eax, esi
  00095	5e		 pop	 esi
  00096	c3		 ret	 0
??0GameFramework@@QAE@XZ ENDP				; GameFramework::GameFramework
_TEXT	ENDS
; Function compile flags: /Ogtp
;	COMDAT ?__autoclassinit2@Logger@@QAEXI@Z
_TEXT	SEGMENT
_classSize$dead$ = 8					; size = 4
?__autoclassinit2@Logger@@QAEXI@Z PROC			; Logger::__autoclassinit2, COMDAT
; _this$ = ecx
  00000	0f 57 c0	 xorps	 xmm0, xmm0
  00003	0f 11 01	 movups	 XMMWORD PTR [ecx], xmm0
  00006	66 0f d6 41 10	 movq	 QWORD PTR [ecx+16], xmm0
  0000b	c2 04 00	 ret	 4
?__autoclassinit2@Logger@@QAEXI@Z ENDP			; Logger::__autoclassinit2
_TEXT	ENDS
; Function compile flags: /Ogtp
; File c:\program files (x86)\microsoft visual studio\2017\community\vc\tools\msvc\14.16.27023\include\sstream
;	COMDAT ??_D?$basic_stringstream@DU?$char_traits@D@std@@V?$allocator@D@2@@std@@QAEXXZ
_TEXT	SEGMENT
??_D?$basic_stringstream@DU?$char_traits@D@std@@V?$allocator@D@2@@std@@QAEXXZ PROC ; std::basic_stringstream<char,std::char_traits<char>,std::allocator<char> >::`vbase destructor', COMDAT
; _this$ = ecx

; 711  : 		{	// destroy the object

  00000	8b 01		 mov	 eax, DWORD PTR [ecx]
  00002	56		 push	 esi
  00003	8d 71 68	 lea	 esi, DWORD PTR [ecx+104]

; 712  : 		}

  00006	8d 4e b0	 lea	 ecx, DWORD PTR [esi-80]
  00009	8b 40 04	 mov	 eax, DWORD PTR [eax+4]
  0000c	c7 44 30 98 00
	00 00 00	 mov	 DWORD PTR [eax+esi-104], OFFSET ??_7?$basic_stringstream@DU?$char_traits@D@std@@V?$allocator@D@2@@std@@6B@
  00014	8b 46 98	 mov	 eax, DWORD PTR [esi-104]
  00017	8b 50 04	 mov	 edx, DWORD PTR [eax+4]
  0001a	8d 42 98	 lea	 eax, DWORD PTR [edx-104]
  0001d	89 44 32 94	 mov	 DWORD PTR [edx+esi-108], eax
  00021	e8 00 00 00 00	 call	 ??1?$basic_stringbuf@DU?$char_traits@D@std@@V?$allocator@D@2@@std@@UAE@XZ ; std::basic_stringbuf<char,std::char_traits<char>,std::allocator<char> >::~basic_stringbuf<char,std::char_traits<char>,std::allocator<char> >
  00026	8d 4e b8	 lea	 ecx, DWORD PTR [esi-72]
  00029	ff 15 00 00 00
	00		 call	 DWORD PTR __imp_??1?$basic_iostream@DU?$char_traits@D@std@@@std@@UAE@XZ
  0002f	8b ce		 mov	 ecx, esi
  00031	5e		 pop	 esi
  00032	ff 25 00 00 00
	00		 jmp	 DWORD PTR __imp_??1?$basic_ios@DU?$char_traits@D@std@@@std@@UAE@XZ
??_D?$basic_stringstream@DU?$char_traits@D@std@@V?$allocator@D@2@@std@@QAEXXZ ENDP ; std::basic_stringstream<char,std::char_traits<char>,std::allocator<char> >::`vbase destructor'
_TEXT	ENDS
; Function compile flags: /Ogtp
;	COMDAT ?__autoclassinit2@?$basic_stringstream@DU?$char_traits@D@std@@V?$allocator@D@2@@std@@QAEXI@Z
_TEXT	SEGMENT
_classSize$dead$ = 8					; size = 4
?__autoclassinit2@?$basic_stringstream@DU?$char_traits@D@std@@V?$allocator@D@2@@std@@QAEXI@Z PROC ; std::basic_stringstream<char,std::char_traits<char>,std::allocator<char> >::__autoclassinit2, COMDAT
; _this$ = ecx
  00000	68 b0 00 00 00	 push	 176			; 000000b0H
  00005	6a 00		 push	 0
  00007	51		 push	 ecx
  00008	e8 00 00 00 00	 call	 _memset
  0000d	83 c4 0c	 add	 esp, 12			; 0000000cH
  00010	c2 04 00	 ret	 4
?__autoclassinit2@?$basic_stringstream@DU?$char_traits@D@std@@V?$allocator@D@2@@std@@QAEXI@Z ENDP ; std::basic_stringstream<char,std::char_traits<char>,std::allocator<char> >::__autoclassinit2
_TEXT	ENDS
; Function compile flags: /Ogtp
; File c:\program files (x86)\microsoft visual studio\2017\community\vc\tools\msvc\14.16.27023\include\sstream
;	COMDAT ?str@?$basic_stringstream@DU?$char_traits@D@std@@V?$allocator@D@2@@std@@QBE?AV?$basic_string@DU?$char_traits@D@std@@V?$allocator@D@2@@2@XZ
_TEXT	SEGMENT
___$ReturnUdt$ = 8					; size = 4
?str@?$basic_stringstream@DU?$char_traits@D@std@@V?$allocator@D@2@@std@@QBE?AV?$basic_string@DU?$char_traits@D@std@@V?$allocator@D@2@@2@XZ PROC ; std::basic_stringstream<char,std::char_traits<char>,std::allocator<char> >::str, COMDAT
; _this$ = ecx

; 720  : 		{	// return string copy of character array

  00000	55		 push	 ebp
  00001	8b ec		 mov	 ebp, esp

; 721  : 		return (_Stringbuffer.str());

  00003	ff 75 08	 push	 DWORD PTR ___$ReturnUdt$[ebp]
  00006	83 c1 18	 add	 ecx, 24			; 00000018H
  00009	e8 00 00 00 00	 call	 ?str@?$basic_stringbuf@DU?$char_traits@D@std@@V?$allocator@D@2@@std@@QBE?AV?$basic_string@DU?$char_traits@D@std@@V?$allocator@D@2@@2@XZ ; std::basic_stringbuf<char,std::char_traits<char>,std::allocator<char> >::str
  0000e	8b 45 08	 mov	 eax, DWORD PTR ___$ReturnUdt$[ebp]

; 722  : 		}

  00011	5d		 pop	 ebp
  00012	c2 04 00	 ret	 4
?str@?$basic_stringstream@DU?$char_traits@D@std@@V?$allocator@D@2@@std@@QBE?AV?$basic_string@DU?$char_traits@D@std@@V?$allocator@D@2@@2@XZ ENDP ; std::basic_stringstream<char,std::char_traits<char>,std::allocator<char> >::str
_TEXT	ENDS
; Function compile flags: /Ogtp
; File c:\program files (x86)\microsoft visual studio\2017\community\vc\tools\msvc\14.16.27023\include\sstream
;	COMDAT ??1?$basic_stringstream@DU?$char_traits@D@std@@V?$allocator@D@2@@std@@UAE@XZ
_TEXT	SEGMENT
??1?$basic_stringstream@DU?$char_traits@D@std@@V?$allocator@D@2@@std@@UAE@XZ PROC ; std::basic_stringstream<char,std::char_traits<char>,std::allocator<char> >::~basic_stringstream<char,std::char_traits<char>,std::allocator<char> >, COMDAT
; _this$ = ecx

; 711  : 		{	// destroy the object

  00000	56		 push	 esi
  00001	8b f1		 mov	 esi, ecx
  00003	8b 46 98	 mov	 eax, DWORD PTR [esi-104]

; 712  : 		}

  00006	8d 4e b0	 lea	 ecx, DWORD PTR [esi-80]
  00009	8b 40 04	 mov	 eax, DWORD PTR [eax+4]
  0000c	c7 44 30 98 00
	00 00 00	 mov	 DWORD PTR [eax+esi-104], OFFSET ??_7?$basic_stringstream@DU?$char_traits@D@std@@V?$allocator@D@2@@std@@6B@
  00014	8b 46 98	 mov	 eax, DWORD PTR [esi-104]
  00017	8b 50 04	 mov	 edx, DWORD PTR [eax+4]
  0001a	8d 42 98	 lea	 eax, DWORD PTR [edx-104]
  0001d	89 44 32 94	 mov	 DWORD PTR [edx+esi-108], eax
  00021	e8 00 00 00 00	 call	 ??1?$basic_stringbuf@DU?$char_traits@D@std@@V?$allocator@D@2@@std@@UAE@XZ ; std::basic_stringbuf<char,std::char_traits<char>,std::allocator<char> >::~basic_stringbuf<char,std::char_traits<char>,std::allocator<char> >
  00026	8d 4e b8	 lea	 ecx, DWORD PTR [esi-72]
  00029	5e		 pop	 esi
  0002a	ff 25 00 00 00
	00		 jmp	 DWORD PTR __imp_??1?$basic_iostream@DU?$char_traits@D@std@@@std@@UAE@XZ
??1?$basic_stringstream@DU?$char_traits@D@std@@V?$allocator@D@2@@std@@UAE@XZ ENDP ; std::basic_stringstream<char,std::char_traits<char>,std::allocator<char> >::~basic_stringstream<char,std::char_traits<char>,std::allocator<char> >
_TEXT	ENDS
; Function compile flags: /Ogtp
; File c:\program files (x86)\microsoft visual studio\2017\community\vc\tools\msvc\14.16.27023\include\sstream
;	COMDAT ??0?$basic_stringstream@DU?$char_traits@D@std@@V?$allocator@D@2@@std@@QAE@H@Z
_TEXT	SEGMENT
_this$ = -20						; size = 4
$T1 = -16						; size = 4
__$EHRec$ = -12						; size = 12
__Mode$dead$ = 8					; size = 4
_$initVBases$dead$ = 12					; size = 4
??0?$basic_stringstream@DU?$char_traits@D@std@@V?$allocator@D@2@@std@@QAE@H@Z PROC ; std::basic_stringstream<char,std::char_traits<char>,std::allocator<char> >::basic_stringstream<char,std::char_traits<char>,std::allocator<char> >, COMDAT
; _this$ = ecx

; 667  : 		{	// construct empty character buffer

  00000	55		 push	 ebp
  00001	8b ec		 mov	 ebp, esp
  00003	6a ff		 push	 -1
  00005	68 00 00 00 00	 push	 __ehhandler$??0?$basic_stringstream@DU?$char_traits@D@std@@V?$allocator@D@2@@std@@QAE@H@Z
  0000a	64 a1 00 00 00
	00		 mov	 eax, DWORD PTR fs:0
  00010	50		 push	 eax
  00011	83 ec 08	 sub	 esp, 8
  00014	56		 push	 esi
  00015	57		 push	 edi
  00016	a1 00 00 00 00	 mov	 eax, DWORD PTR ___security_cookie
  0001b	33 c5		 xor	 eax, ebp
  0001d	50		 push	 eax
  0001e	8d 45 f4	 lea	 eax, DWORD PTR __$EHRec$[ebp]
  00021	64 a3 00 00 00
	00		 mov	 DWORD PTR fs:0, eax
  00027	8b f9		 mov	 edi, ecx
  00029	89 7d ec	 mov	 DWORD PTR _this$[ebp], edi
  0002c	c7 45 f0 00 00
	00 00		 mov	 DWORD PTR $T1[ebp], 0
  00033	8d 4f 68	 lea	 ecx, DWORD PTR [edi+104]
  00036	c7 07 00 00 00
	00		 mov	 DWORD PTR [edi], OFFSET ??_8?$basic_stringstream@DU?$char_traits@D@std@@V?$allocator@D@2@@std@@7B?$basic_istream@DU?$char_traits@D@std@@@1@@
  0003c	c7 47 10 00 00
	00 00		 mov	 DWORD PTR [edi+16], OFFSET ??_8?$basic_stringstream@DU?$char_traits@D@std@@V?$allocator@D@2@@std@@7B?$basic_ostream@DU?$char_traits@D@std@@@1@@
  00043	ff 15 00 00 00
	00		 call	 DWORD PTR __imp_??0?$basic_ios@DU?$char_traits@D@std@@@std@@IAE@XZ
  00049	6a 00		 push	 0
  0004b	8d 77 18	 lea	 esi, DWORD PTR [edi+24]
  0004e	c7 45 fc 00 00
	00 00		 mov	 DWORD PTR __$EHRec$[ebp+8], 0
  00055	56		 push	 esi
  00056	8b cf		 mov	 ecx, edi
  00058	c7 45 f0 01 00
	00 00		 mov	 DWORD PTR $T1[ebp], 1
  0005f	ff 15 00 00 00
	00		 call	 DWORD PTR __imp_??0?$basic_iostream@DU?$char_traits@D@std@@@std@@QAE@PAV?$basic_streambuf@DU?$char_traits@D@std@@@1@@Z
  00065	c7 45 fc 01 00
	00 00		 mov	 DWORD PTR __$EHRec$[ebp+8], 1
  0006c	8b 07		 mov	 eax, DWORD PTR [edi]
  0006e	8b 40 04	 mov	 eax, DWORD PTR [eax+4]
  00071	c7 04 07 00 00
	00 00		 mov	 DWORD PTR [edi+eax], OFFSET ??_7?$basic_stringstream@DU?$char_traits@D@std@@V?$allocator@D@2@@std@@6B@
  00078	8b 07		 mov	 eax, DWORD PTR [edi]
  0007a	8b 48 04	 mov	 ecx, DWORD PTR [eax+4]
  0007d	8d 41 98	 lea	 eax, DWORD PTR [ecx-104]
  00080	89 44 39 fc	 mov	 DWORD PTR [ecx+edi-4], eax

; 33   : 		{	// construct empty character buffer from mode

  00084	8b ce		 mov	 ecx, esi
  00086	ff 15 00 00 00
	00		 call	 DWORD PTR __imp_??0?$basic_streambuf@DU?$char_traits@D@std@@@std@@IAE@XZ
  0008c	c7 06 00 00 00
	00		 mov	 DWORD PTR [esi], OFFSET ??_7?$basic_stringbuf@DU?$char_traits@D@std@@V?$allocator@D@2@@std@@6B@

; 668  : 		}

  00092	8b c7		 mov	 eax, edi

; 30   : 		: _Seekhigh(nullptr),

  00094	c7 46 38 00 00
	00 00		 mov	 DWORD PTR [esi+56], 0

; 31   : 		_Mystate(_Getstate(_Mode)),

  0009b	c7 46 3c 00 00
	00 00		 mov	 DWORD PTR [esi+60], 0

; 668  : 		}

  000a2	8b 4d f4	 mov	 ecx, DWORD PTR __$EHRec$[ebp]
  000a5	64 89 0d 00 00
	00 00		 mov	 DWORD PTR fs:0, ecx
  000ac	59		 pop	 ecx
  000ad	5f		 pop	 edi
  000ae	5e		 pop	 esi
  000af	8b e5		 mov	 esp, ebp
  000b1	5d		 pop	 ebp
  000b2	c2 08 00	 ret	 8
_TEXT	ENDS
;	COMDAT text$x
text$x	SEGMENT
__unwindfunclet$??0?$basic_stringstream@DU?$char_traits@D@std@@V?$allocator@D@2@@std@@QAE@H@Z$0:
  00000	8b 45 f0	 mov	 eax, DWORD PTR $T1[ebp]
  00003	83 e0 01	 and	 eax, 1
  00006	0f 84 10 00 00
	00		 je	 $LN5@basic_stri
  0000c	83 65 f0 fe	 and	 DWORD PTR $T1[ebp], -2	; fffffffeH
  00010	8b 4d ec	 mov	 ecx, DWORD PTR _this$[ebp]
  00013	83 c1 68	 add	 ecx, 104		; 00000068H
  00016	ff 25 00 00 00
	00		 jmp	 DWORD PTR __imp_??1?$basic_ios@DU?$char_traits@D@std@@@std@@UAE@XZ
$LN5@basic_stri:
  0001c	c3		 ret	 0
__unwindfunclet$??0?$basic_stringstream@DU?$char_traits@D@std@@V?$allocator@D@2@@std@@QAE@H@Z$1:
  0001d	8b 4d ec	 mov	 ecx, DWORD PTR _this$[ebp]
  00020	83 c1 20	 add	 ecx, 32			; 00000020H
  00023	ff 25 00 00 00
	00		 jmp	 DWORD PTR __imp_??1?$basic_iostream@DU?$char_traits@D@std@@@std@@UAE@XZ
__ehhandler$??0?$basic_stringstream@DU?$char_traits@D@std@@V?$allocator@D@2@@std@@QAE@H@Z:
  00029	8b 54 24 08	 mov	 edx, DWORD PTR [esp+8]
  0002d	8d 42 0c	 lea	 eax, DWORD PTR [edx+12]
  00030	8b 4a ec	 mov	 ecx, DWORD PTR [edx-20]
  00033	33 c8		 xor	 ecx, eax
  00035	e8 00 00 00 00	 call	 @__security_check_cookie@4
  0003a	b8 00 00 00 00	 mov	 eax, OFFSET __ehfuncinfo$??0?$basic_stringstream@DU?$char_traits@D@std@@V?$allocator@D@2@@std@@QAE@H@Z
  0003f	e9 00 00 00 00	 jmp	 ___CxxFrameHandler3
text$x	ENDS
??0?$basic_stringstream@DU?$char_traits@D@std@@V?$allocator@D@2@@std@@QAE@H@Z ENDP ; std::basic_stringstream<char,std::char_traits<char>,std::allocator<char> >::basic_stringstream<char,std::char_traits<char>,std::allocator<char> >
; Function compile flags: /Ogtp
; File c:\program files (x86)\microsoft visual studio\2017\community\vc\tools\msvc\14.16.27023\include\sstream
;	COMDAT ??_G?$basic_stringstream@DU?$char_traits@D@std@@V?$allocator@D@2@@std@@UAEPAXI@Z
_TEXT	SEGMENT
___flags$ = 8						; size = 4
??_G?$basic_stringstream@DU?$char_traits@D@std@@V?$allocator@D@2@@std@@UAEPAXI@Z PROC ; std::basic_stringstream<char,std::char_traits<char>,std::allocator<char> >::`scalar deleting destructor', COMDAT
; _this$ = ecx
  00000	55		 push	 ebp
  00001	8b ec		 mov	 ebp, esp

; 711  : 		{	// destroy the object

  00003	56		 push	 esi
  00004	8b f1		 mov	 esi, ecx
  00006	8b 46 98	 mov	 eax, DWORD PTR [esi-104]
  00009	57		 push	 edi
  0000a	8d 7e 98	 lea	 edi, DWORD PTR [esi-104]

; 712  : 		}

  0000d	8d 4e b0	 lea	 ecx, DWORD PTR [esi-80]
  00010	8b 40 04	 mov	 eax, DWORD PTR [eax+4]
  00013	c7 44 30 98 00
	00 00 00	 mov	 DWORD PTR [eax+esi-104], OFFSET ??_7?$basic_stringstream@DU?$char_traits@D@std@@V?$allocator@D@2@@std@@6B@
  0001b	8b 07		 mov	 eax, DWORD PTR [edi]
  0001d	8b 50 04	 mov	 edx, DWORD PTR [eax+4]
  00020	8d 42 98	 lea	 eax, DWORD PTR [edx-104]
  00023	89 44 32 94	 mov	 DWORD PTR [edx+esi-108], eax
  00027	e8 00 00 00 00	 call	 ??1?$basic_stringbuf@DU?$char_traits@D@std@@V?$allocator@D@2@@std@@UAE@XZ ; std::basic_stringbuf<char,std::char_traits<char>,std::allocator<char> >::~basic_stringbuf<char,std::char_traits<char>,std::allocator<char> >
  0002c	8d 4e b8	 lea	 ecx, DWORD PTR [esi-72]
  0002f	ff 15 00 00 00
	00		 call	 DWORD PTR __imp_??1?$basic_iostream@DU?$char_traits@D@std@@@std@@UAE@XZ
  00035	8b ce		 mov	 ecx, esi
  00037	ff 15 00 00 00
	00		 call	 DWORD PTR __imp_??1?$basic_ios@DU?$char_traits@D@std@@@std@@UAE@XZ
  0003d	f6 45 08 01	 test	 BYTE PTR ___flags$[ebp], 1
  00041	74 0e		 je	 SHORT $LN9@scalar
  00043	68 b0 00 00 00	 push	 176			; 000000b0H
  00048	57		 push	 edi
  00049	e8 00 00 00 00	 call	 ??3@YAXPAXI@Z		; operator delete
  0004e	83 c4 08	 add	 esp, 8
$LN9@scalar:
  00051	8b c7		 mov	 eax, edi
  00053	5f		 pop	 edi
  00054	5e		 pop	 esi
  00055	5d		 pop	 ebp
  00056	c2 04 00	 ret	 4
??_G?$basic_stringstream@DU?$char_traits@D@std@@V?$allocator@D@2@@std@@UAEPAXI@Z ENDP ; std::basic_stringstream<char,std::char_traits<char>,std::allocator<char> >::`scalar deleting destructor'
_TEXT	ENDS
END
