; Listing generated by Microsoft (R) Optimizing Compiler Version 19.16.27034.0 

	TITLE	c:\users\henry\source\repos\otc\otc\otc\cpp\runtime\runtimehandler.cpp
	.686P
	.XMM
	include listing.inc
	.model	flat

INCLUDELIB OLDNAMES

PUBLIC	??_R4?$basic_ostringstream@DU?$char_traits@D@std@@V?$allocator@D@2@@std@@6B@ ; std::basic_ostringstream<char,std::char_traits<char>,std::allocator<char> >::`RTTI Complete Object Locator'
PUBLIC	??_7?$basic_ostringstream@DU?$char_traits@D@std@@V?$allocator@D@2@@std@@6B@ ; std::basic_ostringstream<char,std::char_traits<char>,std::allocator<char> >::`vftable'
PUBLIC	??_R0?AV?$basic_stringbuf@DU?$char_traits@D@std@@V?$allocator@D@2@@std@@@8 ; std::basic_stringbuf<char,std::char_traits<char>,std::allocator<char> > `RTTI Type Descriptor'
PUBLIC	??_R2?$basic_stringbuf@DU?$char_traits@D@std@@V?$allocator@D@2@@std@@8 ; std::basic_stringbuf<char,std::char_traits<char>,std::allocator<char> >::`RTTI Base Class Array'
PUBLIC	??_R3?$basic_ostringstream@DU?$char_traits@D@std@@V?$allocator@D@2@@std@@8 ; std::basic_ostringstream<char,std::char_traits<char>,std::allocator<char> >::`RTTI Class Hierarchy Descriptor'
PUBLIC	??_R1A@?0A@EA@?$basic_ostringstream@DU?$char_traits@D@std@@V?$allocator@D@2@@std@@8 ; std::basic_ostringstream<char,std::char_traits<char>,std::allocator<char> >::`RTTI Base Class Descriptor at (0,-1,0,64)'
PUBLIC	??_R3?$basic_stringbuf@DU?$char_traits@D@std@@V?$allocator@D@2@@std@@8 ; std::basic_stringbuf<char,std::char_traits<char>,std::allocator<char> >::`RTTI Class Hierarchy Descriptor'
PUBLIC	??_R0?AV?$basic_ostringstream@DU?$char_traits@D@std@@V?$allocator@D@2@@std@@@8 ; std::basic_ostringstream<char,std::char_traits<char>,std::allocator<char> > `RTTI Type Descriptor'
PUBLIC	??_7?$basic_stringbuf@DU?$char_traits@D@std@@V?$allocator@D@2@@std@@6B@ ; std::basic_stringbuf<char,std::char_traits<char>,std::allocator<char> >::`vftable'
PUBLIC	??_R1A@?0A@EA@?$basic_stringbuf@DU?$char_traits@D@std@@V?$allocator@D@2@@std@@8 ; std::basic_stringbuf<char,std::char_traits<char>,std::allocator<char> >::`RTTI Base Class Descriptor at (0,-1,0,64)'
PUBLIC	??_8?$basic_ostringstream@DU?$char_traits@D@std@@V?$allocator@D@2@@std@@7B@ ; std::basic_ostringstream<char,std::char_traits<char>,std::allocator<char> >::`vbtable'
PUBLIC	??_R4?$basic_stringbuf@DU?$char_traits@D@std@@V?$allocator@D@2@@std@@6B@ ; std::basic_stringbuf<char,std::char_traits<char>,std::allocator<char> >::`RTTI Complete Object Locator'
PUBLIC	??_R2?$basic_ostringstream@DU?$char_traits@D@std@@V?$allocator@D@2@@std@@8 ; std::basic_ostringstream<char,std::char_traits<char>,std::allocator<char> >::`RTTI Base Class Array'
PUBLIC	??_C@_0BL@CHOBNDMJ@Variable?5or?5value?5is?5null?4@ ; `string'
PUBLIC	??_C@_0CB@OJCABHLM@Allocated?5memory?5pointer?5is?5nul@ ; `string'
PUBLIC	??_C@_0L@DLBPKAOP@Function?3?5@			; `string'
PUBLIC	??_C@_05LHNIPNPB@?5?$DM?$HM?$DO?5@		; `string'
PUBLIC	??_C@_08PHLEJAAL@Module?3?5@			; `string'
PUBLIC	??_C@_0CA@LNJEDMFL@Can?$GAt?5find?5module?5or?5function?4?5@ ; `string'
PUBLIC	??_C@_05MEGJJFDG@?5?$DM?9?$DO?5@		; `string'
PUBLIC	??_C@_0CB@FHNJEIA@Can?8t?5find?5offset?5type?4?5Offset?3@ ; `string'
PUBLIC	??_C@_0BC@MFGAJMC@OEP?5value?5is?5null@		; `string'
EXTRN	__imp_?setp@?$basic_streambuf@DU?$char_traits@D@std@@@std@@IAEXPAD00@Z:PROC
EXTRN	__imp_?pbase@?$basic_streambuf@DU?$char_traits@D@std@@@std@@IBEPADXZ:PROC
EXTRN	__imp__VirtualAlloc@16:PROC
EXTRN	__imp_??6?$basic_ostream@DU?$char_traits@D@std@@@std@@QAEAAV01@K@Z:PROC
EXTRN	?imbue@?$basic_streambuf@DU?$char_traits@D@std@@@std@@MAEXABVlocale@2@@Z:PROC ; std::basic_streambuf<char,std::char_traits<char> >::imbue
EXTRN	__imp_?imbue@?$basic_streambuf@DU?$char_traits@D@std@@@std@@MAEXABVlocale@2@@Z:PROC
EXTRN	?sync@?$basic_streambuf@DU?$char_traits@D@std@@@std@@MAEHXZ:PROC ; std::basic_streambuf<char,std::char_traits<char> >::sync
EXTRN	__imp_?sync@?$basic_streambuf@DU?$char_traits@D@std@@@std@@MAEHXZ:PROC
EXTRN	?setbuf@?$basic_streambuf@DU?$char_traits@D@std@@@std@@MAEPAV12@PAD_J@Z:PROC ; std::basic_streambuf<char,std::char_traits<char> >::setbuf
EXTRN	__imp_?setbuf@?$basic_streambuf@DU?$char_traits@D@std@@@std@@MAEPAV12@PAD_J@Z:PROC
EXTRN	?uflow@?$basic_streambuf@DU?$char_traits@D@std@@@std@@MAEHXZ:PROC ; std::basic_streambuf<char,std::char_traits<char> >::uflow
EXTRN	__imp_?uflow@?$basic_streambuf@DU?$char_traits@D@std@@@std@@MAEHXZ:PROC
EXTRN	?_Unlock@?$basic_streambuf@DU?$char_traits@D@std@@@std@@UAEXXZ:PROC ; std::basic_streambuf<char,std::char_traits<char> >::_Unlock
EXTRN	__imp_?_Unlock@?$basic_streambuf@DU?$char_traits@D@std@@@std@@UAEXXZ:PROC
EXTRN	?_Lock@?$basic_streambuf@DU?$char_traits@D@std@@@std@@UAEXXZ:PROC ; std::basic_streambuf<char,std::char_traits<char> >::_Lock
EXTRN	__imp_?_Lock@?$basic_streambuf@DU?$char_traits@D@std@@@std@@UAEXXZ:PROC
CONST	ENDS
;	COMDAT ??_C@_0BC@MFGAJMC@OEP?5value?5is?5null@
CONST	SEGMENT
??_C@_0BC@MFGAJMC@OEP?5value?5is?5null@ DB 'OEP value is null', 00H ; `string'
CONST	ENDS
;	COMDAT ??_C@_0CB@FHNJEIA@Can?8t?5find?5offset?5type?4?5Offset?3@
CONST	SEGMENT
??_C@_0CB@FHNJEIA@Can?8t?5find?5offset?5type?4?5Offset?3@ DB 'Can''t find'
	DB	' offset type. Offset: ', 00H		; `string'
CONST	ENDS
;	COMDAT ??_C@_05MEGJJFDG@?5?$DM?9?$DO?5@
CONST	SEGMENT
??_C@_05MEGJJFDG@?5?$DM?9?$DO?5@ DB ' <-> ', 00H	; `string'
CONST	ENDS
;	COMDAT ??_C@_0CA@LNJEDMFL@Can?$GAt?5find?5module?5or?5function?4?5@
CONST	SEGMENT
??_C@_0CA@LNJEDMFL@Can?$GAt?5find?5module?5or?5function?4?5@ DB 'Can`t fi'
	DB	'nd module or function. ', 00H		; `string'
CONST	ENDS
;	COMDAT ??_C@_08PHLEJAAL@Module?3?5@
CONST	SEGMENT
??_C@_08PHLEJAAL@Module?3?5@ DB 'Module: ', 00H		; `string'
CONST	ENDS
;	COMDAT ??_C@_05LHNIPNPB@?5?$DM?$HM?$DO?5@
CONST	SEGMENT
??_C@_05LHNIPNPB@?5?$DM?$HM?$DO?5@ DB ' <|> ', 00H	; `string'
CONST	ENDS
;	COMDAT ??_C@_0L@DLBPKAOP@Function?3?5@
CONST	SEGMENT
??_C@_0L@DLBPKAOP@Function?3?5@ DB 'Function: ', 00H	; `string'
CONST	ENDS
;	COMDAT ??_C@_0CB@OJCABHLM@Allocated?5memory?5pointer?5is?5nul@
CONST	SEGMENT
??_C@_0CB@OJCABHLM@Allocated?5memory?5pointer?5is?5nul@ DB 'Allocated mem'
	DB	'ory pointer is null', 00H			; `string'
CONST	ENDS
;	COMDAT ??_C@_0BL@CHOBNDMJ@Variable?5or?5value?5is?5null?4@
CONST	SEGMENT
??_C@_0BL@CHOBNDMJ@Variable?5or?5value?5is?5null?4@ DB 'Variable or value'
	DB	' is null.', 00H				; `string'
CONST	ENDS
;	COMDAT ??_R2?$basic_ostringstream@DU?$char_traits@D@std@@V?$allocator@D@2@@std@@8
rdata$r	SEGMENT
??_R2?$basic_ostringstream@DU?$char_traits@D@std@@V?$allocator@D@2@@std@@8 DD FLAT:??_R1A@?0A@EA@?$basic_ostringstream@DU?$char_traits@D@std@@V?$allocator@D@2@@std@@8 ; std::basic_ostringstream<char,std::char_traits<char>,std::allocator<char> >::`RTTI Base Class Array'
	DD	FLAT:??_R1A@?0A@EA@?$basic_ostream@DU?$char_traits@D@std@@@std@@8
	DD	FLAT:??_R1A@A@3FA@?$basic_ios@DU?$char_traits@D@std@@@std@@8
	DD	FLAT:??_R1A@A@3EA@ios_base@std@@8
	DD	FLAT:??_R17A@3EA@?$_Iosb@H@std@@8
rdata$r	ENDS
;	COMDAT ??_R4?$basic_stringbuf@DU?$char_traits@D@std@@V?$allocator@D@2@@std@@6B@
rdata$r	SEGMENT
??_R4?$basic_stringbuf@DU?$char_traits@D@std@@V?$allocator@D@2@@std@@6B@ DD 00H ; std::basic_stringbuf<char,std::char_traits<char>,std::allocator<char> >::`RTTI Complete Object Locator'
	DD	00H
	DD	00H
	DD	FLAT:??_R0?AV?$basic_stringbuf@DU?$char_traits@D@std@@V?$allocator@D@2@@std@@@8
	DD	FLAT:??_R3?$basic_stringbuf@DU?$char_traits@D@std@@V?$allocator@D@2@@std@@8
rdata$r	ENDS
;	COMDAT ??_8?$basic_ostringstream@DU?$char_traits@D@std@@V?$allocator@D@2@@std@@7B@
CONST	SEGMENT
??_8?$basic_ostringstream@DU?$char_traits@D@std@@V?$allocator@D@2@@std@@7B@ DD 00H ; std::basic_ostringstream<char,std::char_traits<char>,std::allocator<char> >::`vbtable'
	DD	050H
CONST	ENDS
;	COMDAT ??_R1A@?0A@EA@?$basic_stringbuf@DU?$char_traits@D@std@@V?$allocator@D@2@@std@@8
rdata$r	SEGMENT
??_R1A@?0A@EA@?$basic_stringbuf@DU?$char_traits@D@std@@V?$allocator@D@2@@std@@8 DD FLAT:??_R0?AV?$basic_stringbuf@DU?$char_traits@D@std@@V?$allocator@D@2@@std@@@8 ; std::basic_stringbuf<char,std::char_traits<char>,std::allocator<char> >::`RTTI Base Class Descriptor at (0,-1,0,64)'
	DD	01H
	DD	00H
	DD	0ffffffffH
	DD	00H
	DD	040H
	DD	FLAT:??_R3?$basic_stringbuf@DU?$char_traits@D@std@@V?$allocator@D@2@@std@@8
rdata$r	ENDS
;	COMDAT ??_7?$basic_stringbuf@DU?$char_traits@D@std@@V?$allocator@D@2@@std@@6B@
CONST	SEGMENT
??_7?$basic_stringbuf@DU?$char_traits@D@std@@V?$allocator@D@2@@std@@6B@ DD FLAT:??_R4?$basic_stringbuf@DU?$char_traits@D@std@@V?$allocator@D@2@@std@@6B@ ; std::basic_stringbuf<char,std::char_traits<char>,std::allocator<char> >::`vftable'
	DD	FLAT:??_E?$basic_stringbuf@DU?$char_traits@D@std@@V?$allocator@D@2@@std@@UAEPAXI@Z
	DD	FLAT:?_Lock@?$basic_streambuf@DU?$char_traits@D@std@@@std@@UAEXXZ
	DD	FLAT:?_Unlock@?$basic_streambuf@DU?$char_traits@D@std@@@std@@UAEXXZ
	DD	FLAT:?overflow@?$basic_stringbuf@DU?$char_traits@D@std@@V?$allocator@D@2@@std@@MAEHH@Z
	DD	FLAT:?pbackfail@?$basic_stringbuf@DU?$char_traits@D@std@@V?$allocator@D@2@@std@@MAEHH@Z
	DD	FLAT:?showmanyc@?$basic_streambuf@DU?$char_traits@D@std@@@std@@MAE_JXZ
	DD	FLAT:?underflow@?$basic_stringbuf@DU?$char_traits@D@std@@V?$allocator@D@2@@std@@MAEHXZ
	DD	FLAT:?uflow@?$basic_streambuf@DU?$char_traits@D@std@@@std@@MAEHXZ
	DD	FLAT:?xsgetn@?$basic_streambuf@DU?$char_traits@D@std@@@std@@MAE_JPAD_J@Z
	DD	FLAT:?xsputn@?$basic_streambuf@DU?$char_traits@D@std@@@std@@MAE_JPBD_J@Z
	DD	FLAT:?seekoff@?$basic_stringbuf@DU?$char_traits@D@std@@V?$allocator@D@2@@std@@MAE?AV?$fpos@U_Mbstatet@@@2@_JHH@Z
	DD	FLAT:?seekpos@?$basic_stringbuf@DU?$char_traits@D@std@@V?$allocator@D@2@@std@@MAE?AV?$fpos@U_Mbstatet@@@2@V32@H@Z
	DD	FLAT:?setbuf@?$basic_streambuf@DU?$char_traits@D@std@@@std@@MAEPAV12@PAD_J@Z
	DD	FLAT:?sync@?$basic_streambuf@DU?$char_traits@D@std@@@std@@MAEHXZ
	DD	FLAT:?imbue@?$basic_streambuf@DU?$char_traits@D@std@@@std@@MAEXABVlocale@2@@Z
CONST	ENDS
;	COMDAT ??_R0?AV?$basic_ostringstream@DU?$char_traits@D@std@@V?$allocator@D@2@@std@@@8
data$r	SEGMENT
??_R0?AV?$basic_ostringstream@DU?$char_traits@D@std@@V?$allocator@D@2@@std@@@8 DD FLAT:??_7type_info@@6B@ ; std::basic_ostringstream<char,std::char_traits<char>,std::allocator<char> > `RTTI Type Descriptor'
	DD	00H
	DB	'.?AV?$basic_ostringstream@DU?$char_traits@D@std@@V?$allo'
	DB	'cator@D@2@@std@@', 00H
data$r	ENDS
;	COMDAT ??_R3?$basic_stringbuf@DU?$char_traits@D@std@@V?$allocator@D@2@@std@@8
rdata$r	SEGMENT
??_R3?$basic_stringbuf@DU?$char_traits@D@std@@V?$allocator@D@2@@std@@8 DD 00H ; std::basic_stringbuf<char,std::char_traits<char>,std::allocator<char> >::`RTTI Class Hierarchy Descriptor'
	DD	00H
	DD	02H
	DD	FLAT:??_R2?$basic_stringbuf@DU?$char_traits@D@std@@V?$allocator@D@2@@std@@8
rdata$r	ENDS
;	COMDAT ??_R1A@?0A@EA@?$basic_ostringstream@DU?$char_traits@D@std@@V?$allocator@D@2@@std@@8
rdata$r	SEGMENT
??_R1A@?0A@EA@?$basic_ostringstream@DU?$char_traits@D@std@@V?$allocator@D@2@@std@@8 DD FLAT:??_R0?AV?$basic_ostringstream@DU?$char_traits@D@std@@V?$allocator@D@2@@std@@@8 ; std::basic_ostringstream<char,std::char_traits<char>,std::allocator<char> >::`RTTI Base Class Descriptor at (0,-1,0,64)'
	DD	04H
	DD	00H
	DD	0ffffffffH
	DD	00H
	DD	040H
	DD	FLAT:??_R3?$basic_ostringstream@DU?$char_traits@D@std@@V?$allocator@D@2@@std@@8
rdata$r	ENDS
;	COMDAT ??_R3?$basic_ostringstream@DU?$char_traits@D@std@@V?$allocator@D@2@@std@@8
rdata$r	SEGMENT
??_R3?$basic_ostringstream@DU?$char_traits@D@std@@V?$allocator@D@2@@std@@8 DD 00H ; std::basic_ostringstream<char,std::char_traits<char>,std::allocator<char> >::`RTTI Class Hierarchy Descriptor'
	DD	00H
	DD	05H
	DD	FLAT:??_R2?$basic_ostringstream@DU?$char_traits@D@std@@V?$allocator@D@2@@std@@8
rdata$r	ENDS
;	COMDAT ??_R2?$basic_stringbuf@DU?$char_traits@D@std@@V?$allocator@D@2@@std@@8
rdata$r	SEGMENT
??_R2?$basic_stringbuf@DU?$char_traits@D@std@@V?$allocator@D@2@@std@@8 DD FLAT:??_R1A@?0A@EA@?$basic_stringbuf@DU?$char_traits@D@std@@V?$allocator@D@2@@std@@8 ; std::basic_stringbuf<char,std::char_traits<char>,std::allocator<char> >::`RTTI Base Class Array'
	DD	FLAT:??_R1A@?0A@EA@?$basic_streambuf@DU?$char_traits@D@std@@@std@@8
rdata$r	ENDS
;	COMDAT ??_R0?AV?$basic_stringbuf@DU?$char_traits@D@std@@V?$allocator@D@2@@std@@@8
data$r	SEGMENT
??_R0?AV?$basic_stringbuf@DU?$char_traits@D@std@@V?$allocator@D@2@@std@@@8 DD FLAT:??_7type_info@@6B@ ; std::basic_stringbuf<char,std::char_traits<char>,std::allocator<char> > `RTTI Type Descriptor'
	DD	00H
	DB	'.?AV?$basic_stringbuf@DU?$char_traits@D@std@@V?$allocato'
	DB	'r@D@2@@std@@', 00H
data$r	ENDS
;	COMDAT ??_7?$basic_ostringstream@DU?$char_traits@D@std@@V?$allocator@D@2@@std@@6B@
CONST	SEGMENT
??_7?$basic_ostringstream@DU?$char_traits@D@std@@V?$allocator@D@2@@std@@6B@ DD FLAT:??_R4?$basic_ostringstream@DU?$char_traits@D@std@@V?$allocator@D@2@@std@@6B@ ; std::basic_ostringstream<char,std::char_traits<char>,std::allocator<char> >::`vftable'
	DD	FLAT:??_E?$basic_ostringstream@DU?$char_traits@D@std@@V?$allocator@D@2@@std@@$4PPPPPPPM@A@AEPAXI@Z
CONST	ENDS
;	COMDAT ??_R4?$basic_ostringstream@DU?$char_traits@D@std@@V?$allocator@D@2@@std@@6B@
rdata$r	SEGMENT
??_R4?$basic_ostringstream@DU?$char_traits@D@std@@V?$allocator@D@2@@std@@6B@ DD 00H ; std::basic_ostringstream<char,std::char_traits<char>,std::allocator<char> >::`RTTI Complete Object Locator'
	DD	050H
	DD	04H
	DD	FLAT:??_R0?AV?$basic_ostringstream@DU?$char_traits@D@std@@V?$allocator@D@2@@std@@@8
	DD	FLAT:??_R3?$basic_ostringstream@DU?$char_traits@D@std@@V?$allocator@D@2@@std@@8
PUBLIC	??_E?$basic_ostringstream@DU?$char_traits@D@std@@V?$allocator@D@2@@std@@$4PPPPPPPM@A@AEPAXI@Z ; std::basic_ostringstream<char,std::char_traits<char>,std::allocator<char> >::`vector deleting destructor'
PUBLIC	??$construct@U?$pair@$$CBW4ImportType@SegmentHeader@@K@std@@AAU12@@?$_Default_allocator_traits@V?$allocator@U?$_Tree_node@U?$pair@$$CBW4ImportType@SegmentHeader@@K@std@@PAX@std@@@std@@@std@@SAXAAV?$allocator@U?$_Tree_node@U?$pair@$$CBW4ImportType@SegmentHeader@@K@std@@PAX@std@@@1@QAU?$pair@$$CBW4ImportType@SegmentHeader@@K@1@AAU31@@Z ; std::_Default_allocator_traits<std::allocator<std::_Tree_node<std::pair<enum SegmentHeader::ImportType const ,unsigned long>,void *> > >::construct<std::pair<enum SegmentHeader::ImportType const ,unsigned long>,std::pair<enum SegmentHeader::ImportType const ,unsigned long> &>
PUBLIC	??$forward@AAU?$pair@$$CBW4ImportType@SegmentHeader@@K@std@@@std@@YAAAU?$pair@$$CBW4ImportType@SegmentHeader@@K@0@AAU10@@Z ; std::forward<std::pair<enum SegmentHeader::ImportType const ,unsigned long> &>
PUBLIC	?_Buynode0@?$_Tree_comp_alloc@V?$_Tmap_traits@W4ImportType@SegmentHeader@@KU?$less@W4ImportType@SegmentHeader@@@std@@V?$allocator@U?$pair@$$CBW4ImportType@SegmentHeader@@K@std@@@4@$00@std@@@std@@QAEPAU?$_Tree_node@U?$pair@$$CBW4ImportType@SegmentHeader@@K@std@@PAX@2@XZ ; std::_Tree_comp_alloc<std::_Tmap_traits<enum SegmentHeader::ImportType,unsigned long,std::less<enum SegmentHeader::ImportType>,std::allocator<std::pair<enum SegmentHeader::ImportType const ,unsigned long> >,1> >::_Buynode0
PUBLIC	?_Freenode0@?$_Tree_comp_alloc@V?$_Tmap_traits@W4ImportType@SegmentHeader@@KU?$less@W4ImportType@SegmentHeader@@@std@@V?$allocator@U?$pair@$$CBW4ImportType@SegmentHeader@@K@std@@@4@$00@std@@@std@@QAEXPAU?$_Tree_node@U?$pair@$$CBW4ImportType@SegmentHeader@@K@std@@PAX@2@@Z ; std::_Tree_comp_alloc<std::_Tmap_traits<enum SegmentHeader::ImportType,unsigned long,std::less<enum SegmentHeader::ImportType>,std::allocator<std::pair<enum SegmentHeader::ImportType const ,unsigned long> >,1> >::_Freenode0
PUBLIC	??$_Buynode@AAU?$pair@$$CBW4ImportType@SegmentHeader@@K@std@@@?$_Tree_comp_alloc@V?$_Tmap_traits@W4ImportType@SegmentHeader@@KU?$less@W4ImportType@SegmentHeader@@@std@@V?$allocator@U?$pair@$$CBW4ImportType@SegmentHeader@@K@std@@@4@$00@std@@@std@@QAEPAU?$_Tree_node@U?$pair@$$CBW4ImportType@SegmentHeader@@K@std@@PAX@1@AAU?$pair@$$CBW4ImportType@SegmentHeader@@K@1@@Z ; std::_Tree_comp_alloc<std::_Tmap_traits<enum SegmentHeader::ImportType,unsigned long,std::less<enum SegmentHeader::ImportType>,std::allocator<std::pair<enum SegmentHeader::ImportType const ,unsigned long> >,1> >::_Buynode<std::pair<enum SegmentHeader::ImportType const ,unsigned long> &>
PUBLIC	??0?$_Tree_val@U?$_Tree_simple_types@U?$pair@$$CBW4ImportType@SegmentHeader@@K@std@@@std@@@std@@QAE@XZ ; std::_Tree_val<std::_Tree_simple_types<std::pair<enum SegmentHeader::ImportType const ,unsigned long> > >::_Tree_val<std::_Tree_simple_types<std::pair<enum SegmentHeader::ImportType const ,unsigned long> > >
PUBLIC	??$forward@AAPAU?$_Tree_node@U?$pair@$$CBW4ImportType@SegmentHeader@@K@std@@PAX@std@@@std@@YAAAPAU?$_Tree_node@U?$pair@$$CBW4ImportType@SegmentHeader@@K@std@@PAX@0@AAPAU10@@Z ; std::forward<std::_Tree_node<std::pair<enum SegmentHeader::ImportType const ,unsigned long>,void *> * &>
PUBLIC	??$_Copy_or_move@U?$pair@$$CBW4ImportType@SegmentHeader@@K@std@@U?$integral_constant@_N$0A@@2@@?$_Tree@V?$_Tmap_traits@W4ImportType@SegmentHeader@@KU?$less@W4ImportType@SegmentHeader@@@std@@V?$allocator@U?$pair@$$CBW4ImportType@SegmentHeader@@K@std@@@4@$00@std@@@std@@IAEPAU?$_Tree_node@U?$pair@$$CBW4ImportType@SegmentHeader@@K@std@@PAX@1@AAU?$pair@$$CBW4ImportType@SegmentHeader@@K@1@U_Copy_tag@01@U?$integral_constant@_N$0A@@1@@Z ; std::_Tree<std::_Tmap_traits<enum SegmentHeader::ImportType,unsigned long,std::less<enum SegmentHeader::ImportType>,std::allocator<std::pair<enum SegmentHeader::ImportType const ,unsigned long> >,1> >::_Copy_or_move<std::pair<enum SegmentHeader::ImportType const ,unsigned long>,std::integral_constant<bool,0> >
PUBLIC	??$?0V?$allocator@U?$_Tree_node@U?$pair@$$CBW4ImportType@SegmentHeader@@K@std@@PAX@std@@@std@@$$V@?$_Compressed_pair@V?$allocator@U?$_Tree_node@U?$pair@$$CBW4ImportType@SegmentHeader@@K@std@@PAX@std@@@std@@V?$_Tree_val@U?$_Tree_simple_types@U?$pair@$$CBW4ImportType@SegmentHeader@@K@std@@@std@@@2@$00@std@@QAE@U_One_then_variadic_args_t@1@$$QAV?$allocator@U?$_Tree_node@U?$pair@$$CBW4ImportType@SegmentHeader@@K@std@@PAX@std@@@1@@Z ; std::_Compressed_pair<std::allocator<std::_Tree_node<std::pair<enum SegmentHeader::ImportType const ,unsigned long>,void *> >,std::_Tree_val<std::_Tree_simple_types<std::pair<enum SegmentHeader::ImportType const ,unsigned long> > >,1>::_Compressed_pair<std::allocator<std::_Tree_node<std::pair<enum SegmentHeader::ImportType const ,unsigned long>,void *> >,std::_Tree_val<std::_Tree_simple_types<std::pair<enum SegmentHeader::ImportType const ,unsigned long> > >,1><std::allocator<std::_Tree_node<std::pair<enum SegmentHeader::ImportType const ,unsigned long>,void *> > >
PUBLIC	??$forward@ABU?$less@W4ImportType@SegmentHeader@@@std@@@std@@YAABU?$less@W4ImportType@SegmentHeader@@@0@ABU10@@Z ; std::forward<std::less<enum SegmentHeader::ImportType> const &>
PUBLIC	??$_Get_size_of_n@$0BI@@std@@YAII@Z		; std::_Get_size_of_n<24>
PUBLIC	??$construct@PAU?$_Tree_node@U?$pair@$$CBW4ImportType@SegmentHeader@@K@std@@PAX@std@@AAPAU12@@?$_Default_allocator_traits@V?$allocator@U?$_Tree_node@U?$pair@$$CBW4ImportType@SegmentHeader@@K@std@@PAX@std@@@std@@@std@@SAXAAV?$allocator@U?$_Tree_node@U?$pair@$$CBW4ImportType@SegmentHeader@@K@std@@PAX@std@@@1@QAPAU?$_Tree_node@U?$pair@$$CBW4ImportType@SegmentHeader@@K@std@@PAX@1@AAPAU31@@Z ; std::_Default_allocator_traits<std::allocator<std::_Tree_node<std::pair<enum SegmentHeader::ImportType const ,unsigned long>,void *> > >::construct<std::_Tree_node<std::pair<enum SegmentHeader::ImportType const ,unsigned long>,void *> *,std::_Tree_node<std::pair<enum SegmentHeader::ImportType const ,unsigned long>,void *> * &>
PUBLIC	??$_Copy_nodes@U_Copy_tag@?$_Tree@V?$_Tmap_traits@W4ImportType@SegmentHeader@@KU?$less@W4ImportType@SegmentHeader@@@std@@V?$allocator@U?$pair@$$CBW4ImportType@SegmentHeader@@K@std@@@4@$00@std@@@std@@@?$_Tree@V?$_Tmap_traits@W4ImportType@SegmentHeader@@KU?$less@W4ImportType@SegmentHeader@@@std@@V?$allocator@U?$pair@$$CBW4ImportType@SegmentHeader@@K@std@@@4@$00@std@@@std@@IAEPAU?$_Tree_node@U?$pair@$$CBW4ImportType@SegmentHeader@@K@std@@PAX@1@PAU21@0U_Copy_tag@01@@Z ; std::_Tree<std::_Tmap_traits<enum SegmentHeader::ImportType,unsigned long,std::less<enum SegmentHeader::ImportType>,std::allocator<std::pair<enum SegmentHeader::ImportType const ,unsigned long> >,1> >::_Copy_nodes<std::_Tree<std::_Tmap_traits<enum SegmentHeader::ImportType,unsigned long,std::less<enum SegmentHeader::ImportType>,std::allocator<std::pair<enum SegmentHeader::ImportType const ,unsigned long> >,1> >::_Copy_tag>
PUBLIC	??$?0ABU?$less@W4ImportType@SegmentHeader@@@std@@U_One_then_variadic_args_t@1@V?$allocator@U?$_Tree_node@U?$pair@$$CBW4ImportType@SegmentHeader@@K@std@@PAX@std@@@1@@?$_Compressed_pair@U?$less@W4ImportType@SegmentHeader@@@std@@V?$_Compressed_pair@V?$allocator@U?$_Tree_node@U?$pair@$$CBW4ImportType@SegmentHeader@@K@std@@PAX@std@@@std@@V?$_Tree_val@U?$_Tree_simple_types@U?$pair@$$CBW4ImportType@SegmentHeader@@K@std@@@std@@@2@$00@2@$00@std@@QAE@U_One_then_variadic_args_t@1@ABU?$less@W4ImportType@SegmentHeader@@@1@$$QAU21@$$QAV?$allocator@U?$_Tree_node@U?$pair@$$CBW4ImportType@SegmentHeader@@K@std@@PAX@std@@@1@@Z ; std::_Compressed_pair<std::less<enum SegmentHeader::ImportType>,std::_Compressed_pair<std::allocator<std::_Tree_node<std::pair<enum SegmentHeader::ImportType const ,unsigned long>,void *> >,std::_Tree_val<std::_Tree_simple_types<std::pair<enum SegmentHeader::ImportType const ,unsigned long> > >,1>,1>::_Compressed_pair<std::less<enum SegmentHeader::ImportType>,std::_Compressed_pair<std::allocator<std::_Tree_node<std::pair<enum SegmentHeader::ImportType const ,unsigned long>,void *> >,std::_Tree_val<std::_Tree_simple_types<std::pair<enum SegmentHeader::ImportType const ,unsigned long> > >,1>,1><std::less<enum SegmentHeader::ImportType> const &,std::_One_then_variadic_args_t,std::allocator<std::_Tree_node<std::pair<enum SegmentHeader::ImportType const ,unsigned long>,void *> > >
PUBLIC	?deallocate@?$allocator@U?$_Tree_node@U?$pair@$$CBW4ImportType@SegmentHeader@@K@std@@PAX@std@@@std@@QAEXQAU?$_Tree_node@U?$pair@$$CBW4ImportType@SegmentHeader@@K@std@@PAX@2@I@Z ; std::allocator<std::_Tree_node<std::pair<enum SegmentHeader::ImportType const ,unsigned long>,void *> >::deallocate
PUBLIC	?allocate@?$allocator@U?$_Tree_node@U?$pair@$$CBW4ImportType@SegmentHeader@@K@std@@PAX@std@@@std@@QAEPAU?$_Tree_node@U?$pair@$$CBW4ImportType@SegmentHeader@@K@std@@PAX@2@I@Z ; std::allocator<std::_Tree_node<std::pair<enum SegmentHeader::ImportType const ,unsigned long>,void *> >::allocate
PUBLIC	?_Buyheadnode@?$_Tree_comp_alloc@V?$_Tmap_traits@W4ImportType@SegmentHeader@@KU?$less@W4ImportType@SegmentHeader@@@std@@V?$allocator@U?$pair@$$CBW4ImportType@SegmentHeader@@K@std@@@4@$00@std@@@std@@QAEPAU?$_Tree_node@U?$pair@$$CBW4ImportType@SegmentHeader@@K@std@@PAX@2@XZ ; std::_Tree_comp_alloc<std::_Tmap_traits<enum SegmentHeader::ImportType,unsigned long,std::less<enum SegmentHeader::ImportType>,std::allocator<std::pair<enum SegmentHeader::ImportType const ,unsigned long> >,1> >::_Buyheadnode
PUBLIC	?size@?$_Tree@V?$_Tmap_traits@W4ImportType@SegmentHeader@@KU?$less@W4ImportType@SegmentHeader@@@std@@V?$allocator@U?$pair@$$CBW4ImportType@SegmentHeader@@K@std@@@4@$00@std@@@std@@QBEIXZ ; std::_Tree<std::_Tmap_traits<enum SegmentHeader::ImportType,unsigned long,std::less<enum SegmentHeader::ImportType>,std::allocator<std::pair<enum SegmentHeader::ImportType const ,unsigned long> >,1> >::size
PUBLIC	?_Construct@?$_Tree_comp_alloc@V?$_Tmap_traits@W4ImportType@SegmentHeader@@KU?$less@W4ImportType@SegmentHeader@@@std@@V?$allocator@U?$pair@$$CBW4ImportType@SegmentHeader@@K@std@@@4@$00@std@@@std@@QAEXXZ ; std::_Tree_comp_alloc<std::_Tmap_traits<enum SegmentHeader::ImportType,unsigned long,std::less<enum SegmentHeader::ImportType>,std::allocator<std::pair<enum SegmentHeader::ImportType const ,unsigned long> >,1> >::_Construct
PUBLIC	??$_Copy@U_Copy_tag@?$_Tree@V?$_Tmap_traits@W4ImportType@SegmentHeader@@KU?$less@W4ImportType@SegmentHeader@@@std@@V?$allocator@U?$pair@$$CBW4ImportType@SegmentHeader@@K@std@@@4@$00@std@@@std@@@?$_Tree@V?$_Tmap_traits@W4ImportType@SegmentHeader@@KU?$less@W4ImportType@SegmentHeader@@@std@@V?$allocator@U?$pair@$$CBW4ImportType@SegmentHeader@@K@std@@@4@$00@std@@@std@@IAEXABV01@U_Copy_tag@01@@Z ; std::_Tree<std::_Tmap_traits<enum SegmentHeader::ImportType,unsigned long,std::less<enum SegmentHeader::ImportType>,std::allocator<std::pair<enum SegmentHeader::ImportType const ,unsigned long> >,1> >::_Copy<std::_Tree<std::_Tmap_traits<enum SegmentHeader::ImportType,unsigned long,std::less<enum SegmentHeader::ImportType>,std::allocator<std::pair<enum SegmentHeader::ImportType const ,unsigned long> >,1> >::_Copy_tag>
PUBLIC	??$?0V?$allocator@U?$_Tree_node@U?$pair@$$CBW4ImportType@SegmentHeader@@K@std@@PAX@std@@@std@@X@?$_Tree_comp_alloc@V?$_Tmap_traits@W4ImportType@SegmentHeader@@KU?$less@W4ImportType@SegmentHeader@@@std@@V?$allocator@U?$pair@$$CBW4ImportType@SegmentHeader@@K@std@@@4@$00@std@@@std@@QAE@ABU?$less@W4ImportType@SegmentHeader@@@1@$$QAV?$allocator@U?$_Tree_node@U?$pair@$$CBW4ImportType@SegmentHeader@@K@std@@PAX@std@@@1@@Z ; std::_Tree_comp_alloc<std::_Tmap_traits<enum SegmentHeader::ImportType,unsigned long,std::less<enum SegmentHeader::ImportType>,std::allocator<std::pair<enum SegmentHeader::ImportType const ,unsigned long> >,1> >::_Tree_comp_alloc<std::_Tmap_traits<enum SegmentHeader::ImportType,unsigned long,std::less<enum SegmentHeader::ImportType>,std::allocator<std::pair<enum SegmentHeader::ImportType const ,unsigned long> >,1> ><std::allocator<std::_Tree_node<std::pair<enum SegmentHeader::ImportType const ,unsigned long>,void *> >,void>
PUBLIC	??$forward@V?$allocator@U?$_Tree_node@U?$pair@$$CBW4ImportType@SegmentHeader@@K@std@@PAX@std@@@std@@@std@@YA$$QAV?$allocator@U?$_Tree_node@U?$pair@$$CBW4ImportType@SegmentHeader@@K@std@@PAX@std@@@0@AAV10@@Z ; std::forward<std::allocator<std::_Tree_node<std::pair<enum SegmentHeader::ImportType const ,unsigned long>,void *> > >
PUBLIC	?_Get_first@?$_Compressed_pair@U?$less@W4ImportType@SegmentHeader@@@std@@V?$_Compressed_pair@V?$allocator@U?$_Tree_node@U?$pair@$$CBW4ImportType@SegmentHeader@@K@std@@PAX@std@@@std@@V?$_Tree_val@U?$_Tree_simple_types@U?$pair@$$CBW4ImportType@SegmentHeader@@K@std@@@std@@@2@$00@2@$00@std@@QBEABU?$less@W4ImportType@SegmentHeader@@@2@XZ ; std::_Compressed_pair<std::less<enum SegmentHeader::ImportType>,std::_Compressed_pair<std::allocator<std::_Tree_node<std::pair<enum SegmentHeader::ImportType const ,unsigned long>,void *> >,std::_Tree_val<std::_Tree_simple_types<std::pair<enum SegmentHeader::ImportType const ,unsigned long> > >,1>,1>::_Get_first
PUBLIC	?_Getcomp@?$_Tree_comp_alloc@V?$_Tmap_traits@W4ImportType@SegmentHeader@@KU?$less@W4ImportType@SegmentHeader@@@std@@V?$allocator@U?$pair@$$CBW4ImportType@SegmentHeader@@K@std@@@4@$00@std@@@std@@QBEABU?$less@W4ImportType@SegmentHeader@@@2@XZ ; std::_Tree_comp_alloc<std::_Tmap_traits<enum SegmentHeader::ImportType,unsigned long,std::less<enum SegmentHeader::ImportType>,std::allocator<std::pair<enum SegmentHeader::ImportType const ,unsigned long> >,1> >::_Getcomp
PUBLIC	?key_comp@?$_Tree@V?$_Tmap_traits@W4ImportType@SegmentHeader@@KU?$less@W4ImportType@SegmentHeader@@@std@@V?$allocator@U?$pair@$$CBW4ImportType@SegmentHeader@@K@std@@@4@$00@std@@@std@@QBE?AU?$less@W4ImportType@SegmentHeader@@@2@XZ ; std::_Tree<std::_Tmap_traits<enum SegmentHeader::ImportType,unsigned long,std::less<enum SegmentHeader::ImportType>,std::allocator<std::pair<enum SegmentHeader::ImportType const ,unsigned long> >,1> >::key_comp
PUBLIC	??$?0V?$allocator@U?$_Tree_node@U?$pair@$$CBW4ImportType@SegmentHeader@@K@std@@PAX@std@@@std@@@?$_Tree@V?$_Tmap_traits@W4ImportType@SegmentHeader@@KU?$less@W4ImportType@SegmentHeader@@@std@@V?$allocator@U?$pair@$$CBW4ImportType@SegmentHeader@@K@std@@@4@$00@std@@@std@@QAE@ABV01@$$QAV?$allocator@U?$_Tree_node@U?$pair@$$CBW4ImportType@SegmentHeader@@K@std@@PAX@std@@@1@@Z ; std::_Tree<std::_Tmap_traits<enum SegmentHeader::ImportType,unsigned long,std::less<enum SegmentHeader::ImportType>,std::allocator<std::pair<enum SegmentHeader::ImportType const ,unsigned long> >,1> >::_Tree<std::_Tmap_traits<enum SegmentHeader::ImportType,unsigned long,std::less<enum SegmentHeader::ImportType>,std::allocator<std::pair<enum SegmentHeader::ImportType const ,unsigned long> >,1> ><std::allocator<std::_Tree_node<std::pair<enum SegmentHeader::ImportType const ,unsigned long>,void *> > >
PUBLIC	?_Get_first@?$_Compressed_pair@V?$allocator@U?$_Tree_node@U?$pair@$$CBW4ImportType@SegmentHeader@@K@std@@PAX@std@@@std@@V?$_Tree_val@U?$_Tree_simple_types@U?$pair@$$CBW4ImportType@SegmentHeader@@K@std@@@std@@@2@$00@std@@QBEABV?$allocator@U?$_Tree_node@U?$pair@$$CBW4ImportType@SegmentHeader@@K@std@@PAX@std@@@2@XZ ; std::_Compressed_pair<std::allocator<std::_Tree_node<std::pair<enum SegmentHeader::ImportType const ,unsigned long>,void *> >,std::_Tree_val<std::_Tree_simple_types<std::pair<enum SegmentHeader::ImportType const ,unsigned long> > >,1>::_Get_first
PUBLIC	?_Getal@?$_Tree_comp_alloc@V?$_Tmap_traits@W4ImportType@SegmentHeader@@KU?$less@W4ImportType@SegmentHeader@@@std@@V?$allocator@U?$pair@$$CBW4ImportType@SegmentHeader@@K@std@@@4@$00@std@@@std@@QBEABV?$allocator@U?$_Tree_node@U?$pair@$$CBW4ImportType@SegmentHeader@@K@std@@PAX@std@@@2@XZ ; std::_Tree_comp_alloc<std::_Tmap_traits<enum SegmentHeader::ImportType,unsigned long,std::less<enum SegmentHeader::ImportType>,std::allocator<std::pair<enum SegmentHeader::ImportType const ,unsigned long> >,1> >::_Getal
PUBLIC	?select_on_container_copy_construction@?$_Default_allocator_traits@V?$allocator@U?$_Tree_node@U?$pair@$$CBW4ImportType@SegmentHeader@@K@std@@PAX@std@@@std@@@std@@SA?AV?$allocator@U?$_Tree_node@U?$pair@$$CBW4ImportType@SegmentHeader@@K@std@@PAX@std@@@2@ABV32@@Z ; std::_Default_allocator_traits<std::allocator<std::_Tree_node<std::pair<enum SegmentHeader::ImportType const ,unsigned long>,void *> > >::select_on_container_copy_construction
PUBLIC	??0?$multimap@W4ImportType@SegmentHeader@@KU?$less@W4ImportType@SegmentHeader@@@std@@V?$allocator@U?$pair@$$CBW4ImportType@SegmentHeader@@K@std@@@4@@std@@QAE@ABV01@@Z ; std::multimap<enum SegmentHeader::ImportType,unsigned long,std::less<enum SegmentHeader::ImportType>,std::allocator<std::pair<enum SegmentHeader::ImportType const ,unsigned long> > >::multimap<enum SegmentHeader::ImportType,unsigned long,std::less<enum SegmentHeader::ImportType>,std::allocator<std::pair<enum SegmentHeader::ImportType const ,unsigned long> > >
PUBLIC	??0ImportInfo@SegmentHeader@@QAE@ABU01@@Z	; SegmentHeader::ImportInfo::ImportInfo
PUBLIC	??$construct@UImportInfo@SegmentHeader@@AAU12@@?$_Default_allocator_traits@V?$allocator@UImportInfo@SegmentHeader@@@std@@@std@@SAXAAV?$allocator@UImportInfo@SegmentHeader@@@1@QAUImportInfo@SegmentHeader@@AAU34@@Z ; std::_Default_allocator_traits<std::allocator<SegmentHeader::ImportInfo> >::construct<SegmentHeader::ImportInfo,SegmentHeader::ImportInfo &>
PUBLIC	??$forward@AAUImportInfo@SegmentHeader@@@std@@YAAAUImportInfo@SegmentHeader@@AAU12@@Z ; std::forward<SegmentHeader::ImportInfo &>
PUBLIC	??$_Emplace_back@AAUImportInfo@SegmentHeader@@@?$_Uninitialized_backout_al@PAUImportInfo@SegmentHeader@@V?$allocator@UImportInfo@SegmentHeader@@@std@@@std@@QAEXAAUImportInfo@SegmentHeader@@@Z ; std::_Uninitialized_backout_al<SegmentHeader::ImportInfo *,std::allocator<SegmentHeader::ImportInfo> >::_Emplace_back<SegmentHeader::ImportInfo &>
PUBLIC	??0?$_Uninitialized_backout_al@PAUImportInfo@SegmentHeader@@V?$allocator@UImportInfo@SegmentHeader@@@std@@@std@@QAE@PAUImportInfo@SegmentHeader@@AAV?$allocator@UImportInfo@SegmentHeader@@@1@@Z ; std::_Uninitialized_backout_al<SegmentHeader::ImportInfo *,std::allocator<SegmentHeader::ImportInfo> >::_Uninitialized_backout_al<SegmentHeader::ImportInfo *,std::allocator<SegmentHeader::ImportInfo> >
PUBLIC	??1?$_Uninitialized_backout_al@PAUImportInfo@SegmentHeader@@V?$allocator@UImportInfo@SegmentHeader@@@std@@@std@@QAE@XZ ; std::_Uninitialized_backout_al<SegmentHeader::ImportInfo *,std::allocator<SegmentHeader::ImportInfo> >::~_Uninitialized_backout_al<SegmentHeader::ImportInfo *,std::allocator<SegmentHeader::ImportInfo> >
PUBLIC	?_Release@?$_Uninitialized_backout_al@PAUImportInfo@SegmentHeader@@V?$allocator@UImportInfo@SegmentHeader@@@std@@@std@@QAEPAUImportInfo@SegmentHeader@@XZ ; std::_Uninitialized_backout_al<SegmentHeader::ImportInfo *,std::allocator<SegmentHeader::ImportInfo> >::_Release
PUBLIC	?__autoclassinit2@?$_Uninitialized_backout_al@PAUImportInfo@SegmentHeader@@V?$allocator@UImportInfo@SegmentHeader@@@std@@@std@@QAEXI@Z ; std::_Uninitialized_backout_al<SegmentHeader::ImportInfo *,std::allocator<SegmentHeader::ImportInfo> >::__autoclassinit2
PUBLIC	??$_Seek_wrapped@UImportInfo@SegmentHeader@@@std@@YAXAAPAUImportInfo@SegmentHeader@@QAU12@@Z ; std::_Seek_wrapped<SegmentHeader::ImportInfo>
PUBLIC	??$_Uninitialized_copy_al_unchecked@PAUImportInfo@SegmentHeader@@PAU12@V?$allocator@UImportInfo@SegmentHeader@@@std@@@std@@YAPAUImportInfo@SegmentHeader@@PAU12@QAU12@1AAV?$allocator@UImportInfo@SegmentHeader@@@0@U_General_ptr_iterator_tag@0@U_Unused_parameter@0@@Z ; std::_Uninitialized_copy_al_unchecked<SegmentHeader::ImportInfo *,SegmentHeader::ImportInfo *,std::allocator<SegmentHeader::ImportInfo> >
PUBLIC	??$_Ptr_copy_cat@UImportInfo@SegmentHeader@@U12@@std@@YA?AU_General_ptr_iterator_tag@0@ABQAUImportInfo@SegmentHeader@@0@Z ; std::_Ptr_copy_cat<SegmentHeader::ImportInfo,SegmentHeader::ImportInfo>
PUBLIC	??$_Get_unwrapped_n@UImportInfo@SegmentHeader@@H$0A@@std@@YAPAUImportInfo@SegmentHeader@@QAU12@H@Z ; std::_Get_unwrapped_n<SegmentHeader::ImportInfo,int,0>
PUBLIC	??$_Get_unwrapped@UImportInfo@SegmentHeader@@@std@@YAPAUImportInfo@SegmentHeader@@QAU12@@Z ; std::_Get_unwrapped<SegmentHeader::ImportInfo>
PUBLIC	??0?$_Vector_val@U?$_Simple_types@UImportInfo@SegmentHeader@@@std@@@std@@QAE@XZ ; std::_Vector_val<std::_Simple_types<SegmentHeader::ImportInfo> >::_Vector_val<std::_Simple_types<SegmentHeader::ImportInfo> >
PUBLIC	??$_Idl_distance@PAUImportInfo@SegmentHeader@@PAU12@@std@@YAHABQAUImportInfo@SegmentHeader@@0@Z ; std::_Idl_distance<SegmentHeader::ImportInfo *,SegmentHeader::ImportInfo *>
PUBLIC	??$_Uninitialized_copy@PAUImportInfo@SegmentHeader@@PAU12@V?$allocator@UImportInfo@SegmentHeader@@@std@@@std@@YAPAUImportInfo@SegmentHeader@@QAU12@0PAU12@AAV?$allocator@UImportInfo@SegmentHeader@@@0@@Z ; std::_Uninitialized_copy<SegmentHeader::ImportInfo *,SegmentHeader::ImportInfo *,std::allocator<SegmentHeader::ImportInfo> >
PUBLIC	??$?0V?$allocator@UImportInfo@SegmentHeader@@@std@@$$V@?$_Compressed_pair@V?$allocator@UImportInfo@SegmentHeader@@@std@@V?$_Vector_val@U?$_Simple_types@UImportInfo@SegmentHeader@@@std@@@2@$00@std@@QAE@U_One_then_variadic_args_t@1@$$QAV?$allocator@UImportInfo@SegmentHeader@@@1@@Z ; std::_Compressed_pair<std::allocator<SegmentHeader::ImportInfo>,std::_Vector_val<std::_Simple_types<SegmentHeader::ImportInfo> >,1>::_Compressed_pair<std::allocator<SegmentHeader::ImportInfo>,std::_Vector_val<std::_Simple_types<SegmentHeader::ImportInfo> >,1><std::allocator<SegmentHeader::ImportInfo> >
PUBLIC	??$forward@V?$allocator@UImportInfo@SegmentHeader@@@std@@@std@@YA$$QAV?$allocator@UImportInfo@SegmentHeader@@@0@AAV10@@Z ; std::forward<std::allocator<SegmentHeader::ImportInfo> >
PUBLIC	??$_Get_size_of_n@$0M@@std@@YAII@Z		; std::_Get_size_of_n<12>
PUBLIC	??$_Ucopy@PAUImportInfo@SegmentHeader@@@?$vector@UImportInfo@SegmentHeader@@V?$allocator@UImportInfo@SegmentHeader@@@std@@@std@@AAEPAUImportInfo@SegmentHeader@@PAU23@00@Z ; std::vector<SegmentHeader::ImportInfo,std::allocator<SegmentHeader::ImportInfo> >::_Ucopy<SegmentHeader::ImportInfo *>
PUBLIC	??$?0V?$allocator@UImportInfo@SegmentHeader@@@std@@X@?$_Vector_alloc@U?$_Vec_base_types@UImportInfo@SegmentHeader@@V?$allocator@UImportInfo@SegmentHeader@@@std@@@std@@@std@@QAE@$$QAV?$allocator@UImportInfo@SegmentHeader@@@1@@Z ; std::_Vector_alloc<std::_Vec_base_types<SegmentHeader::ImportInfo,std::allocator<SegmentHeader::ImportInfo> > >::_Vector_alloc<std::_Vec_base_types<SegmentHeader::ImportInfo,std::allocator<SegmentHeader::ImportInfo> > ><std::allocator<SegmentHeader::ImportInfo>,void>
PUBLIC	?max_size@?$_Default_allocator_traits@V?$allocator@UImportInfo@SegmentHeader@@@std@@@std@@SAIABV?$allocator@UImportInfo@SegmentHeader@@@2@@Z ; std::_Default_allocator_traits<std::allocator<SegmentHeader::ImportInfo> >::max_size
PUBLIC	?allocate@?$allocator@UImportInfo@SegmentHeader@@@std@@QAEPAUImportInfo@SegmentHeader@@I@Z ; std::allocator<SegmentHeader::ImportInfo>::allocate
PUBLIC	?max_size@?$vector@UImportInfo@SegmentHeader@@V?$allocator@UImportInfo@SegmentHeader@@@std@@@std@@QBEIXZ ; std::vector<SegmentHeader::ImportInfo,std::allocator<SegmentHeader::ImportInfo> >::max_size
PUBLIC	?_Xlength@?$vector@UImportInfo@SegmentHeader@@V?$allocator@UImportInfo@SegmentHeader@@@std@@@std@@CAXXZ ; std::vector<SegmentHeader::ImportInfo,std::allocator<SegmentHeader::ImportInfo> >::_Xlength
PUBLIC	?_Get_first@?$_Compressed_pair@V?$allocator@UImportInfo@SegmentHeader@@@std@@V?$_Vector_val@U?$_Simple_types@UImportInfo@SegmentHeader@@@std@@@2@$00@std@@QBEABV?$allocator@UImportInfo@SegmentHeader@@@2@XZ ; std::_Compressed_pair<std::allocator<SegmentHeader::ImportInfo>,std::_Vector_val<std::_Simple_types<SegmentHeader::ImportInfo> >,1>::_Get_first
PUBLIC	?size@?$vector@UImportInfo@SegmentHeader@@V?$allocator@UImportInfo@SegmentHeader@@@std@@@std@@QBEIXZ ; std::vector<SegmentHeader::ImportInfo,std::allocator<SegmentHeader::ImportInfo> >::size
PUBLIC	?_Buy@?$vector@UImportInfo@SegmentHeader@@V?$allocator@UImportInfo@SegmentHeader@@@std@@@std@@AAE_NI@Z ; std::vector<SegmentHeader::ImportInfo,std::allocator<SegmentHeader::ImportInfo> >::_Buy
PUBLIC	?_Getal@?$_Vector_alloc@U?$_Vec_base_types@UImportInfo@SegmentHeader@@V?$allocator@UImportInfo@SegmentHeader@@@std@@@std@@@std@@QBEABV?$allocator@UImportInfo@SegmentHeader@@@2@XZ ; std::_Vector_alloc<std::_Vec_base_types<SegmentHeader::ImportInfo,std::allocator<SegmentHeader::ImportInfo> > >::_Getal
PUBLIC	?select_on_container_copy_construction@?$_Default_allocator_traits@V?$allocator@UImportInfo@SegmentHeader@@@std@@@std@@SA?AV?$allocator@UImportInfo@SegmentHeader@@@2@ABV32@@Z ; std::_Default_allocator_traits<std::allocator<SegmentHeader::ImportInfo> >::select_on_container_copy_construction
PUBLIC	??0?$vector@UImportInfo@SegmentHeader@@V?$allocator@UImportInfo@SegmentHeader@@@std@@@std@@QAE@ABV01@@Z ; std::vector<SegmentHeader::ImportInfo,std::allocator<SegmentHeader::ImportInfo> >::vector<SegmentHeader::ImportInfo,std::allocator<SegmentHeader::ImportInfo> >
PUBLIC	??0?$pair@QBDV?$vector@UImportInfo@SegmentHeader@@V?$allocator@UImportInfo@SegmentHeader@@@std@@@std@@@std@@QAE@ABU01@@Z ; std::pair<char const * const,std::vector<SegmentHeader::ImportInfo,std::allocator<SegmentHeader::ImportInfo> > >::pair<char const * const,std::vector<SegmentHeader::ImportInfo,std::allocator<SegmentHeader::ImportInfo> > >
PUBLIC	??$destroy@PAU?$_Tree_node@U?$pair@$$CBW4ImportType@SegmentHeader@@K@std@@PAX@std@@@?$_Default_allocator_traits@V?$allocator@U?$_Tree_node@U?$pair@$$CBW4ImportType@SegmentHeader@@K@std@@PAX@std@@@std@@@std@@SAXAAV?$allocator@U?$_Tree_node@U?$pair@$$CBW4ImportType@SegmentHeader@@K@std@@PAX@std@@@1@QAPAU?$_Tree_node@U?$pair@$$CBW4ImportType@SegmentHeader@@K@std@@PAX@1@@Z ; std::_Default_allocator_traits<std::allocator<std::_Tree_node<std::pair<enum SegmentHeader::ImportType const ,unsigned long>,void *> > >::destroy<std::_Tree_node<std::pair<enum SegmentHeader::ImportType const ,unsigned long>,void *> *>
PUBLIC	??$addressof@PAU?$_Tree_node@U?$pair@$$CBW4ImportType@SegmentHeader@@K@std@@PAX@std@@@std@@YAPAPAU?$_Tree_node@U?$pair@$$CBW4ImportType@SegmentHeader@@K@std@@PAX@0@AAPAU10@@Z ; std::addressof<std::_Tree_node<std::pair<enum SegmentHeader::ImportType const ,unsigned long>,void *> *>
PUBLIC	??$construct@U?$pair@QBDV?$vector@UImportInfo@SegmentHeader@@V?$allocator@UImportInfo@SegmentHeader@@@std@@@std@@@std@@AAU12@@?$_Default_allocator_traits@V?$allocator@U?$_Tree_node@U?$pair@QBDV?$vector@UImportInfo@SegmentHeader@@V?$allocator@UImportInfo@SegmentHeader@@@std@@@std@@@std@@PAX@std@@@std@@@std@@SAXAAV?$allocator@U?$_Tree_node@U?$pair@QBDV?$vector@UImportInfo@SegmentHeader@@V?$allocator@UImportInfo@SegmentHeader@@@std@@@std@@@std@@PAX@std@@@1@QAU?$pair@QBDV?$vector@UImportInfo@SegmentHeader@@V?$allocator@UImportInfo@SegmentHeader@@@std@@@std@@@1@AAU31@@Z ; std::_Default_allocator_traits<std::allocator<std::_Tree_node<std::pair<char const * const,std::vector<SegmentHeader::ImportInfo,std::allocator<SegmentHeader::ImportInfo> > >,void *> > >::construct<std::pair<char const * const,std::vector<SegmentHeader::ImportInfo,std::allocator<SegmentHeader::ImportInfo> > >,std::pair<char const * const,std::vector<SegmentHeader::ImportInfo,std::allocator<SegmentHeader::ImportInfo> > > &>
PUBLIC	??$forward@AAU?$pair@QBDV?$vector@UImportInfo@SegmentHeader@@V?$allocator@UImportInfo@SegmentHeader@@@std@@@std@@@std@@@std@@YAAAU?$pair@QBDV?$vector@UImportInfo@SegmentHeader@@V?$allocator@UImportInfo@SegmentHeader@@@std@@@std@@@0@AAU10@@Z ; std::forward<std::pair<char const * const,std::vector<SegmentHeader::ImportInfo,std::allocator<SegmentHeader::ImportInfo> > > &>
PUBLIC	?deallocate@?$_Default_allocator_traits@V?$allocator@U?$_Tree_node@U?$pair@$$CBW4ImportType@SegmentHeader@@K@std@@PAX@std@@@std@@@std@@SAXAAV?$allocator@U?$_Tree_node@U?$pair@$$CBW4ImportType@SegmentHeader@@K@std@@PAX@std@@@2@QAU?$_Tree_node@U?$pair@$$CBW4ImportType@SegmentHeader@@K@std@@PAX@2@I@Z ; std::_Default_allocator_traits<std::allocator<std::_Tree_node<std::pair<enum SegmentHeader::ImportType const ,unsigned long>,void *> > >::deallocate
PUBLIC	?_Buynode0@?$_Tree_comp_alloc@V?$_Tmap_traits@PBDV?$vector@UImportInfo@SegmentHeader@@V?$allocator@UImportInfo@SegmentHeader@@@std@@@std@@U?$less@PBD@2@V?$allocator@U?$pair@QBDV?$vector@UImportInfo@SegmentHeader@@V?$allocator@UImportInfo@SegmentHeader@@@std@@@std@@@std@@@2@$0A@@std@@@std@@QAEPAU?$_Tree_node@U?$pair@QBDV?$vector@UImportInfo@SegmentHeader@@V?$allocator@UImportInfo@SegmentHeader@@@std@@@std@@@std@@PAX@2@XZ ; std::_Tree_comp_alloc<std::_Tmap_traits<char const *,std::vector<SegmentHeader::ImportInfo,std::allocator<SegmentHeader::ImportInfo> >,std::less<char const *>,std::allocator<std::pair<char const * const,std::vector<SegmentHeader::ImportInfo,std::allocator<SegmentHeader::ImportInfo> > > >,0> >::_Buynode0
PUBLIC	?_Freenode0@?$_Tree_comp_alloc@V?$_Tmap_traits@PBDV?$vector@UImportInfo@SegmentHeader@@V?$allocator@UImportInfo@SegmentHeader@@@std@@@std@@U?$less@PBD@2@V?$allocator@U?$pair@QBDV?$vector@UImportInfo@SegmentHeader@@V?$allocator@UImportInfo@SegmentHeader@@@std@@@std@@@std@@@2@$0A@@std@@@std@@QAEXPAU?$_Tree_node@U?$pair@QBDV?$vector@UImportInfo@SegmentHeader@@V?$allocator@UImportInfo@SegmentHeader@@@std@@@std@@@std@@PAX@2@@Z ; std::_Tree_comp_alloc<std::_Tmap_traits<char const *,std::vector<SegmentHeader::ImportInfo,std::allocator<SegmentHeader::ImportInfo> >,std::less<char const *>,std::allocator<std::pair<char const * const,std::vector<SegmentHeader::ImportInfo,std::allocator<SegmentHeader::ImportInfo> > > >,0> >::_Freenode0
PUBLIC	??$destroy@U?$pair@$$CBW4ImportType@SegmentHeader@@K@std@@@?$_Default_allocator_traits@V?$allocator@U?$_Tree_node@U?$pair@$$CBW4ImportType@SegmentHeader@@K@std@@PAX@std@@@std@@@std@@SAXAAV?$allocator@U?$_Tree_node@U?$pair@$$CBW4ImportType@SegmentHeader@@K@std@@PAX@std@@@1@QAU?$pair@$$CBW4ImportType@SegmentHeader@@K@1@@Z ; std::_Default_allocator_traits<std::allocator<std::_Tree_node<std::pair<enum SegmentHeader::ImportType const ,unsigned long>,void *> > >::destroy<std::pair<enum SegmentHeader::ImportType const ,unsigned long> >
PUBLIC	??$addressof@U?$pair@$$CBW4ImportType@SegmentHeader@@K@std@@@std@@YAPAU?$pair@$$CBW4ImportType@SegmentHeader@@K@0@AAU10@@Z ; std::addressof<std::pair<enum SegmentHeader::ImportType const ,unsigned long> >
PUBLIC	??$addressof@V?$_Tree_val@U?$_Tree_simple_types@U?$pair@$$CBW4ImportType@SegmentHeader@@K@std@@@std@@@std@@@std@@YAPAV?$_Tree_val@U?$_Tree_simple_types@U?$pair@$$CBW4ImportType@SegmentHeader@@K@std@@@std@@@0@AAV10@@Z ; std::addressof<std::_Tree_val<std::_Tree_simple_types<std::pair<enum SegmentHeader::ImportType const ,unsigned long> > > >
PUBLIC	??$_Freenode0@V?$allocator@U?$_Tree_node@U?$pair@$$CBW4ImportType@SegmentHeader@@K@std@@PAX@std@@@std@@@?$_Tree_node@U?$pair@$$CBW4ImportType@SegmentHeader@@K@std@@PAX@std@@SAXAAV?$allocator@U?$_Tree_node@U?$pair@$$CBW4ImportType@SegmentHeader@@K@std@@PAX@std@@@1@PAU01@@Z ; std::_Tree_node<std::pair<enum SegmentHeader::ImportType const ,unsigned long>,void *>::_Freenode0<std::allocator<std::_Tree_node<std::pair<enum SegmentHeader::ImportType const ,unsigned long>,void *> > >
PUBLIC	??$_Buynode@AAU?$pair@QBDV?$vector@UImportInfo@SegmentHeader@@V?$allocator@UImportInfo@SegmentHeader@@@std@@@std@@@std@@@?$_Tree_comp_alloc@V?$_Tmap_traits@PBDV?$vector@UImportInfo@SegmentHeader@@V?$allocator@UImportInfo@SegmentHeader@@@std@@@std@@U?$less@PBD@2@V?$allocator@U?$pair@QBDV?$vector@UImportInfo@SegmentHeader@@V?$allocator@UImportInfo@SegmentHeader@@@std@@@std@@@std@@@2@$0A@@std@@@std@@QAEPAU?$_Tree_node@U?$pair@QBDV?$vector@UImportInfo@SegmentHeader@@V?$allocator@UImportInfo@SegmentHeader@@@std@@@std@@@std@@PAX@1@AAU?$pair@QBDV?$vector@UImportInfo@SegmentHeader@@V?$allocator@UImportInfo@SegmentHeader@@@std@@@std@@@1@@Z ; std::_Tree_comp_alloc<std::_Tmap_traits<char const *,std::vector<SegmentHeader::ImportInfo,std::allocator<SegmentHeader::ImportInfo> >,std::less<char const *>,std::allocator<std::pair<char const * const,std::vector<SegmentHeader::ImportInfo,std::allocator<SegmentHeader::ImportInfo> > > >,0> >::_Buynode<std::pair<char const * const,std::vector<SegmentHeader::ImportInfo,std::allocator<SegmentHeader::ImportInfo> > > &>
PUBLIC	??$?0U?$integral_constant@_N$00@std@@@_Unused_parameter@std@@QAE@$$QAU?$integral_constant@_N$00@1@@Z ; std::_Unused_parameter::_Unused_parameter<std::integral_constant<bool,1> >
PUBLIC	?_Max@?$_Tree_val@U?$_Tree_simple_types@U?$pair@$$CBW4ImportType@SegmentHeader@@K@std@@@std@@@std@@SAPAU?$_Tree_node@U?$pair@$$CBW4ImportType@SegmentHeader@@K@std@@PAX@2@PAU32@@Z ; std::_Tree_val<std::_Tree_simple_types<std::pair<enum SegmentHeader::ImportType const ,unsigned long> > >::_Max
PUBLIC	?_Lrotate@?$_Tree_val@U?$_Tree_simple_types@U?$pair@$$CBW4ImportType@SegmentHeader@@K@std@@@std@@@std@@QAEXPAU?$_Tree_node@U?$pair@$$CBW4ImportType@SegmentHeader@@K@std@@PAX@2@@Z ; std::_Tree_val<std::_Tree_simple_types<std::pair<enum SegmentHeader::ImportType const ,unsigned long> > >::_Lrotate
PUBLIC	?_Rrotate@?$_Tree_val@U?$_Tree_simple_types@U?$pair@$$CBW4ImportType@SegmentHeader@@K@std@@@std@@@std@@QAEXPAU?$_Tree_node@U?$pair@$$CBW4ImportType@SegmentHeader@@K@std@@PAX@2@@Z ; std::_Tree_val<std::_Tree_simple_types<std::pair<enum SegmentHeader::ImportType const ,unsigned long> > >::_Rrotate
PUBLIC	?_Erase@?$_Tree@V?$_Tmap_traits@W4ImportType@SegmentHeader@@KU?$less@W4ImportType@SegmentHeader@@@std@@V?$allocator@U?$pair@$$CBW4ImportType@SegmentHeader@@K@std@@@4@$00@std@@@std@@IAEXPAU?$_Tree_node@U?$pair@$$CBW4ImportType@SegmentHeader@@K@std@@PAX@2@@Z ; std::_Tree<std::_Tmap_traits<enum SegmentHeader::ImportType,unsigned long,std::less<enum SegmentHeader::ImportType>,std::allocator<std::pair<enum SegmentHeader::ImportType const ,unsigned long> >,1> >::_Erase
PUBLIC	?_Root@?$_Tree_val@U?$_Tree_simple_types@U?$pair@$$CBW4ImportType@SegmentHeader@@K@std@@@std@@@std@@QBEAAPAU?$_Tree_node@U?$pair@$$CBW4ImportType@SegmentHeader@@K@std@@PAX@2@XZ ; std::_Tree_val<std::_Tree_simple_types<std::pair<enum SegmentHeader::ImportType const ,unsigned long> > >::_Root
PUBLIC	?_Rmost@?$_Tree_val@U?$_Tree_simple_types@U?$pair@$$CBW4ImportType@SegmentHeader@@K@std@@@std@@@std@@QBEAAPAU?$_Tree_node@U?$pair@$$CBW4ImportType@SegmentHeader@@K@std@@PAX@2@XZ ; std::_Tree_val<std::_Tree_simple_types<std::pair<enum SegmentHeader::ImportType const ,unsigned long> > >::_Rmost
PUBLIC	?_Extract@?$_Tree_val@U?$_Tree_simple_types@U?$pair@$$CBW4ImportType@SegmentHeader@@K@std@@@std@@@std@@QAEPAU?$_Tree_node@U?$pair@$$CBW4ImportType@SegmentHeader@@K@std@@PAX@2@V?$_Tree_const_iterator@V?$_Tree_val@U?$_Tree_simple_types@U?$pair@$$CBW4ImportType@SegmentHeader@@K@std@@@std@@@std@@@2@@Z ; std::_Tree_val<std::_Tree_simple_types<std::pair<enum SegmentHeader::ImportType const ,unsigned long> > >::_Extract
PUBLIC	??0?$_Tree_const_iterator@V?$_Tree_val@U?$_Tree_simple_types@U?$pair@$$CBW4ImportType@SegmentHeader@@K@std@@@std@@@std@@@std@@QAE@PAU?$_Tree_node@U?$pair@$$CBW4ImportType@SegmentHeader@@K@std@@PAX@1@PBV?$_Tree_val@U?$_Tree_simple_types@U?$pair@$$CBW4ImportType@SegmentHeader@@K@std@@@std@@@1@@Z ; std::_Tree_const_iterator<std::_Tree_val<std::_Tree_simple_types<std::pair<enum SegmentHeader::ImportType const ,unsigned long> > > >::_Tree_const_iterator<std::_Tree_val<std::_Tree_simple_types<std::pair<enum SegmentHeader::ImportType const ,unsigned long> > > >
PUBLIC	??E?$_Tree_const_iterator@V?$_Tree_val@U?$_Tree_simple_types@U?$pair@$$CBW4ImportType@SegmentHeader@@K@std@@@std@@@std@@@std@@QAEAAV01@XZ ; std::_Tree_const_iterator<std::_Tree_val<std::_Tree_simple_types<std::pair<enum SegmentHeader::ImportType const ,unsigned long> > > >::operator++
PUBLIC	?_Get_first@?$_Compressed_pair@V?$allocator@U?$_Tree_node@U?$pair@$$CBW4ImportType@SegmentHeader@@K@std@@PAX@std@@@std@@V?$_Tree_val@U?$_Tree_simple_types@U?$pair@$$CBW4ImportType@SegmentHeader@@K@std@@@std@@@2@$00@std@@QAEAAV?$allocator@U?$_Tree_node@U?$pair@$$CBW4ImportType@SegmentHeader@@K@std@@PAX@std@@@2@XZ ; std::_Compressed_pair<std::allocator<std::_Tree_node<std::pair<enum SegmentHeader::ImportType const ,unsigned long>,void *> >,std::_Tree_val<std::_Tree_simple_types<std::pair<enum SegmentHeader::ImportType const ,unsigned long> > >,1>::_Get_first
PUBLIC	?__autoclassinit2@?$_Tree_const_iterator@V?$_Tree_val@U?$_Tree_simple_types@U?$pair@$$CBW4ImportType@SegmentHeader@@K@std@@@std@@@std@@@std@@QAEXI@Z ; std::_Tree_const_iterator<std::_Tree_val<std::_Tree_simple_types<std::pair<enum SegmentHeader::ImportType const ,unsigned long> > > >::__autoclassinit2
PUBLIC	?erase@?$_Tree@V?$_Tmap_traits@W4ImportType@SegmentHeader@@KU?$less@W4ImportType@SegmentHeader@@@std@@V?$allocator@U?$pair@$$CBW4ImportType@SegmentHeader@@K@std@@@4@$00@std@@@std@@QAE?AV?$_Tree_iterator@V?$_Tree_val@U?$_Tree_simple_types@U?$pair@$$CBW4ImportType@SegmentHeader@@K@std@@@std@@@std@@@2@V?$_Tree_const_iterator@V?$_Tree_val@U?$_Tree_simple_types@U?$pair@$$CBW4ImportType@SegmentHeader@@K@std@@@std@@@std@@@2@@Z ; std::_Tree<std::_Tmap_traits<enum SegmentHeader::ImportType,unsigned long,std::less<enum SegmentHeader::ImportType>,std::allocator<std::pair<enum SegmentHeader::ImportType const ,unsigned long> >,1> >::erase
PUBLIC	?clear@?$_Tree@V?$_Tmap_traits@W4ImportType@SegmentHeader@@KU?$less@W4ImportType@SegmentHeader@@@std@@V?$allocator@U?$pair@$$CBW4ImportType@SegmentHeader@@K@std@@@4@$00@std@@@std@@QAEXXZ ; std::_Tree<std::_Tmap_traits<enum SegmentHeader::ImportType,unsigned long,std::less<enum SegmentHeader::ImportType>,std::allocator<std::pair<enum SegmentHeader::ImportType const ,unsigned long> >,1> >::clear
PUBLIC	?_Getal@?$_Tree_comp_alloc@V?$_Tmap_traits@W4ImportType@SegmentHeader@@KU?$less@W4ImportType@SegmentHeader@@@std@@V?$allocator@U?$pair@$$CBW4ImportType@SegmentHeader@@K@std@@@4@$00@std@@@std@@QAEAAV?$allocator@U?$_Tree_node@U?$pair@$$CBW4ImportType@SegmentHeader@@K@std@@PAX@std@@@2@XZ ; std::_Tree_comp_alloc<std::_Tmap_traits<enum SegmentHeader::ImportType,unsigned long,std::less<enum SegmentHeader::ImportType>,std::allocator<std::pair<enum SegmentHeader::ImportType const ,unsigned long> >,1> >::_Getal
PUBLIC	??0?$_Tree_iterator@V?$_Tree_val@U?$_Tree_simple_types@U?$pair@$$CBW4ImportType@SegmentHeader@@K@std@@@std@@@std@@@std@@QAE@PAU?$_Tree_node@U?$pair@$$CBW4ImportType@SegmentHeader@@K@std@@PAX@1@PBV?$_Tree_val@U?$_Tree_simple_types@U?$pair@$$CBW4ImportType@SegmentHeader@@K@std@@@std@@@1@@Z ; std::_Tree_iterator<std::_Tree_val<std::_Tree_simple_types<std::pair<enum SegmentHeader::ImportType const ,unsigned long> > > >::_Tree_iterator<std::_Tree_val<std::_Tree_simple_types<std::pair<enum SegmentHeader::ImportType const ,unsigned long> > > >
PUBLIC	??E?$_Tree_const_iterator@V?$_Tree_val@U?$_Tree_simple_types@U?$pair@$$CBW4ImportType@SegmentHeader@@K@std@@@std@@@std@@@std@@QAE?AV01@H@Z ; std::_Tree_const_iterator<std::_Tree_val<std::_Tree_simple_types<std::pair<enum SegmentHeader::ImportType const ,unsigned long> > > >::operator++
PUBLIC	??8?$_Tree_const_iterator@V?$_Tree_val@U?$_Tree_simple_types@U?$pair@$$CBW4ImportType@SegmentHeader@@K@std@@@std@@@std@@@std@@QBE_NABV01@@Z ; std::_Tree_const_iterator<std::_Tree_val<std::_Tree_simple_types<std::pair<enum SegmentHeader::ImportType const ,unsigned long> > > >::operator==
PUBLIC	??9?$_Tree_const_iterator@V?$_Tree_val@U?$_Tree_simple_types@U?$pair@$$CBW4ImportType@SegmentHeader@@K@std@@@std@@@std@@@std@@QBE_NABV01@@Z ; std::_Tree_const_iterator<std::_Tree_val<std::_Tree_simple_types<std::pair<enum SegmentHeader::ImportType const ,unsigned long> > > >::operator!=
PUBLIC	?_Get_second@?$_Compressed_pair@V?$allocator@U?$_Tree_node@U?$pair@$$CBW4ImportType@SegmentHeader@@K@std@@PAX@std@@@std@@V?$_Tree_val@U?$_Tree_simple_types@U?$pair@$$CBW4ImportType@SegmentHeader@@K@std@@@std@@@2@$00@std@@QAEAAV?$_Tree_val@U?$_Tree_simple_types@U?$pair@$$CBW4ImportType@SegmentHeader@@K@std@@@std@@@2@XZ ; std::_Compressed_pair<std::allocator<std::_Tree_node<std::pair<enum SegmentHeader::ImportType const ,unsigned long>,void *> >,std::_Tree_val<std::_Tree_simple_types<std::pair<enum SegmentHeader::ImportType const ,unsigned long> > >,1>::_Get_second
PUBLIC	?_Get_second@?$_Compressed_pair@U?$less@W4ImportType@SegmentHeader@@@std@@V?$_Compressed_pair@V?$allocator@U?$_Tree_node@U?$pair@$$CBW4ImportType@SegmentHeader@@K@std@@PAX@std@@@std@@V?$_Tree_val@U?$_Tree_simple_types@U?$pair@$$CBW4ImportType@SegmentHeader@@K@std@@@std@@@2@$00@2@$00@std@@QAEAAV?$_Compressed_pair@V?$allocator@U?$_Tree_node@U?$pair@$$CBW4ImportType@SegmentHeader@@K@std@@PAX@std@@@std@@V?$_Tree_val@U?$_Tree_simple_types@U?$pair@$$CBW4ImportType@SegmentHeader@@K@std@@@std@@@2@$00@2@XZ ; std::_Compressed_pair<std::less<enum SegmentHeader::ImportType>,std::_Compressed_pair<std::allocator<std::_Tree_node<std::pair<enum SegmentHeader::ImportType const ,unsigned long>,void *> >,std::_Tree_val<std::_Tree_simple_types<std::pair<enum SegmentHeader::ImportType const ,unsigned long> > >,1>,1>::_Get_second
PUBLIC	?begin@?$_Tree@V?$_Tmap_traits@W4ImportType@SegmentHeader@@KU?$less@W4ImportType@SegmentHeader@@@std@@V?$allocator@U?$pair@$$CBW4ImportType@SegmentHeader@@K@std@@@4@$00@std@@@std@@QAE?AV?$_Tree_iterator@V?$_Tree_val@U?$_Tree_simple_types@U?$pair@$$CBW4ImportType@SegmentHeader@@K@std@@@std@@@std@@@2@XZ ; std::_Tree<std::_Tmap_traits<enum SegmentHeader::ImportType,unsigned long,std::less<enum SegmentHeader::ImportType>,std::allocator<std::pair<enum SegmentHeader::ImportType const ,unsigned long> >,1> >::begin
PUBLIC	?end@?$_Tree@V?$_Tmap_traits@W4ImportType@SegmentHeader@@KU?$less@W4ImportType@SegmentHeader@@@std@@V?$allocator@U?$pair@$$CBW4ImportType@SegmentHeader@@K@std@@@4@$00@std@@@std@@QAE?AV?$_Tree_iterator@V?$_Tree_val@U?$_Tree_simple_types@U?$pair@$$CBW4ImportType@SegmentHeader@@K@std@@@std@@@std@@@2@XZ ; std::_Tree<std::_Tmap_traits<enum SegmentHeader::ImportType,unsigned long,std::less<enum SegmentHeader::ImportType>,std::allocator<std::pair<enum SegmentHeader::ImportType const ,unsigned long> >,1> >::end
PUBLIC	?erase@?$_Tree@V?$_Tmap_traits@W4ImportType@SegmentHeader@@KU?$less@W4ImportType@SegmentHeader@@@std@@V?$allocator@U?$pair@$$CBW4ImportType@SegmentHeader@@K@std@@@4@$00@std@@@std@@QAE?AV?$_Tree_iterator@V?$_Tree_val@U?$_Tree_simple_types@U?$pair@$$CBW4ImportType@SegmentHeader@@K@std@@@std@@@std@@@2@V?$_Tree_const_iterator@V?$_Tree_val@U?$_Tree_simple_types@U?$pair@$$CBW4ImportType@SegmentHeader@@K@std@@@std@@@std@@@2@0@Z ; std::_Tree<std::_Tmap_traits<enum SegmentHeader::ImportType,unsigned long,std::less<enum SegmentHeader::ImportType>,std::allocator<std::pair<enum SegmentHeader::ImportType const ,unsigned long> >,1> >::erase
PUBLIC	?_Freeheadnode@?$_Tree_comp_alloc@V?$_Tmap_traits@W4ImportType@SegmentHeader@@KU?$less@W4ImportType@SegmentHeader@@@std@@V?$allocator@U?$pair@$$CBW4ImportType@SegmentHeader@@K@std@@@4@$00@std@@@std@@QAEXPAU?$_Tree_node@U?$pair@$$CBW4ImportType@SegmentHeader@@K@std@@PAX@2@@Z ; std::_Tree_comp_alloc<std::_Tmap_traits<enum SegmentHeader::ImportType,unsigned long,std::less<enum SegmentHeader::ImportType>,std::allocator<std::pair<enum SegmentHeader::ImportType const ,unsigned long> >,1> >::_Freeheadnode
PUBLIC	?_Get_data@?$_Tree_comp_alloc@V?$_Tmap_traits@W4ImportType@SegmentHeader@@KU?$less@W4ImportType@SegmentHeader@@@std@@V?$allocator@U?$pair@$$CBW4ImportType@SegmentHeader@@K@std@@@4@$00@std@@@std@@QAEAAV?$_Tree_val@U?$_Tree_simple_types@U?$pair@$$CBW4ImportType@SegmentHeader@@K@std@@@std@@@2@XZ ; std::_Tree_comp_alloc<std::_Tmap_traits<enum SegmentHeader::ImportType,unsigned long,std::less<enum SegmentHeader::ImportType>,std::allocator<std::pair<enum SegmentHeader::ImportType const ,unsigned long> >,1> >::_Get_data
PUBLIC	?_Tidy@?$_Tree@V?$_Tmap_traits@W4ImportType@SegmentHeader@@KU?$less@W4ImportType@SegmentHeader@@@std@@V?$allocator@U?$pair@$$CBW4ImportType@SegmentHeader@@K@std@@@4@$00@std@@@std@@IAEXXZ ; std::_Tree<std::_Tmap_traits<enum SegmentHeader::ImportType,unsigned long,std::less<enum SegmentHeader::ImportType>,std::allocator<std::pair<enum SegmentHeader::ImportType const ,unsigned long> >,1> >::_Tidy
PUBLIC	??1?$_Tree_comp_alloc@V?$_Tmap_traits@W4ImportType@SegmentHeader@@KU?$less@W4ImportType@SegmentHeader@@@std@@V?$allocator@U?$pair@$$CBW4ImportType@SegmentHeader@@K@std@@@4@$00@std@@@std@@QAE@XZ ; std::_Tree_comp_alloc<std::_Tmap_traits<enum SegmentHeader::ImportType,unsigned long,std::less<enum SegmentHeader::ImportType>,std::allocator<std::pair<enum SegmentHeader::ImportType const ,unsigned long> >,1> >::~_Tree_comp_alloc<std::_Tmap_traits<enum SegmentHeader::ImportType,unsigned long,std::less<enum SegmentHeader::ImportType>,std::allocator<std::pair<enum SegmentHeader::ImportType const ,unsigned long> >,1> >
PUBLIC	??1?$_Tree@V?$_Tmap_traits@W4ImportType@SegmentHeader@@KU?$less@W4ImportType@SegmentHeader@@@std@@V?$allocator@U?$pair@$$CBW4ImportType@SegmentHeader@@K@std@@@4@$00@std@@@std@@QAE@XZ ; std::_Tree<std::_Tmap_traits<enum SegmentHeader::ImportType,unsigned long,std::less<enum SegmentHeader::ImportType>,std::allocator<std::pair<enum SegmentHeader::ImportType const ,unsigned long> >,1> >::~_Tree<std::_Tmap_traits<enum SegmentHeader::ImportType,unsigned long,std::less<enum SegmentHeader::ImportType>,std::allocator<std::pair<enum SegmentHeader::ImportType const ,unsigned long> >,1> >
PUBLIC	??1?$multimap@W4ImportType@SegmentHeader@@KU?$less@W4ImportType@SegmentHeader@@@std@@V?$allocator@U?$pair@$$CBW4ImportType@SegmentHeader@@K@std@@@4@@std@@QAE@XZ ; std::multimap<enum SegmentHeader::ImportType,unsigned long,std::less<enum SegmentHeader::ImportType>,std::allocator<std::pair<enum SegmentHeader::ImportType const ,unsigned long> > >::~multimap<enum SegmentHeader::ImportType,unsigned long,std::less<enum SegmentHeader::ImportType>,std::allocator<std::pair<enum SegmentHeader::ImportType const ,unsigned long> > >
PUBLIC	??1ImportInfo@SegmentHeader@@QAE@XZ		; SegmentHeader::ImportInfo::~ImportInfo
PUBLIC	??_GImportInfo@SegmentHeader@@QAEPAXI@Z		; SegmentHeader::ImportInfo::`scalar deleting destructor'
PUBLIC	??$destroy@UImportInfo@SegmentHeader@@@?$_Default_allocator_traits@V?$allocator@UImportInfo@SegmentHeader@@@std@@@std@@SAXAAV?$allocator@UImportInfo@SegmentHeader@@@1@QAUImportInfo@SegmentHeader@@@Z ; std::_Default_allocator_traits<std::allocator<SegmentHeader::ImportInfo> >::destroy<SegmentHeader::ImportInfo>
PUBLIC	??$_Unfancy@UImportInfo@SegmentHeader@@@std@@YAPAUImportInfo@SegmentHeader@@PAU12@@Z ; std::_Unfancy<SegmentHeader::ImportInfo>
PUBLIC	??$_Copy_or_move@U?$pair@QBDV?$vector@UImportInfo@SegmentHeader@@V?$allocator@UImportInfo@SegmentHeader@@@std@@@std@@@std@@U?$integral_constant@_N$0A@@2@@?$_Tree@V?$_Tmap_traits@PBDV?$vector@UImportInfo@SegmentHeader@@V?$allocator@UImportInfo@SegmentHeader@@@std@@@std@@U?$less@PBD@2@V?$allocator@U?$pair@QBDV?$vector@UImportInfo@SegmentHeader@@V?$allocator@UImportInfo@SegmentHeader@@@std@@@std@@@std@@@2@$0A@@std@@@std@@IAEPAU?$_Tree_node@U?$pair@QBDV?$vector@UImportInfo@SegmentHeader@@V?$allocator@UImportInfo@SegmentHeader@@@std@@@std@@@std@@PAX@1@AAU?$pair@QBDV?$vector@UImportInfo@SegmentHeader@@V?$allocator@UImportInfo@SegmentHeader@@@std@@@std@@@1@U_Copy_tag@01@U?$integral_constant@_N$0A@@1@@Z ; std::_Tree<std::_Tmap_traits<char const *,std::vector<SegmentHeader::ImportInfo,std::allocator<SegmentHeader::ImportInfo> >,std::less<char const *>,std::allocator<std::pair<char const * const,std::vector<SegmentHeader::ImportInfo,std::allocator<SegmentHeader::ImportInfo> > > >,0> >::_Copy_or_move<std::pair<char const * const,std::vector<SegmentHeader::ImportInfo,std::allocator<SegmentHeader::ImportInfo> > >,std::integral_constant<bool,0> >
PUBLIC	??$?0V?$allocator@U?$_Tree_node@U?$pair@QBDV?$vector@UImportInfo@SegmentHeader@@V?$allocator@UImportInfo@SegmentHeader@@@std@@@std@@@std@@PAX@std@@@std@@$$V@?$_Compressed_pair@V?$allocator@U?$_Tree_node@U?$pair@QBDV?$vector@UImportInfo@SegmentHeader@@V?$allocator@UImportInfo@SegmentHeader@@@std@@@std@@@std@@PAX@std@@@std@@V?$_Tree_val@U?$_Tree_simple_types@U?$pair@QBDV?$vector@UImportInfo@SegmentHeader@@V?$allocator@UImportInfo@SegmentHeader@@@std@@@std@@@std@@@std@@@2@$00@std@@QAE@U_One_then_variadic_args_t@1@$$QAV?$allocator@U?$_Tree_node@U?$pair@QBDV?$vector@UImportInfo@SegmentHeader@@V?$allocator@UImportInfo@SegmentHeader@@@std@@@std@@@std@@PAX@std@@@1@@Z ; std::_Compressed_pair<std::allocator<std::_Tree_node<std::pair<char const * const,std::vector<SegmentHeader::ImportInfo,std::allocator<SegmentHeader::ImportInfo> > >,void *> >,std::_Tree_val<std::_Tree_simple_types<std::pair<char const * const,std::vector<SegmentHeader::ImportInfo,std::allocator<SegmentHeader::ImportInfo> > > > >,1>::_Compressed_pair<std::allocator<std::_Tree_node<std::pair<char const * const,std::vector<SegmentHeader::ImportInfo,std::allocator<SegmentHeader::ImportInfo> > >,void *> >,std::_Tree_val<std::_Tree_simple_types<std::pair<char const * const,std::vector<SegmentHeader::ImportInfo,std::allocator<SegmentHeader::ImportInfo> > > > >,1><std::allocator<std::_Tree_node<std::pair<char const * const,std::vector<SegmentHeader::ImportInfo,std::allocator<SegmentHeader::ImportInfo> > >,void *> > >
PUBLIC	??$forward@U_One_then_variadic_args_t@std@@@std@@YA$$QAU_One_then_variadic_args_t@0@AAU10@@Z ; std::forward<std::_One_then_variadic_args_t>
PUBLIC	??$_Destroy_range1@V?$allocator@UImportInfo@SegmentHeader@@@std@@@std@@YAXPAUImportInfo@SegmentHeader@@0AAV?$allocator@UImportInfo@SegmentHeader@@@0@U?$integral_constant@_N$0A@@0@@Z ; std::_Destroy_range1<std::allocator<SegmentHeader::ImportInfo> >
PUBLIC	??$_Uninitialized_copy_al_unchecked@KKV?$allocator@K@std@@@std@@YAPAKQAK00AAV?$allocator@K@0@U_Really_trivial_ptr_iterator_tag@0@U?$integral_constant@_N$00@0@@Z ; std::_Uninitialized_copy_al_unchecked<unsigned long,unsigned long,std::allocator<unsigned long> >
PUBLIC	??$_Ptr_copy_cat@KK@std@@YA?AU_Really_trivial_ptr_iterator_tag@0@ABQAK0@Z ; std::_Ptr_copy_cat<unsigned long,unsigned long>
PUBLIC	??$_Copy_nodes@U_Copy_tag@?$_Tree@V?$_Tmap_traits@PBDV?$vector@UImportInfo@SegmentHeader@@V?$allocator@UImportInfo@SegmentHeader@@@std@@@std@@U?$less@PBD@2@V?$allocator@U?$pair@QBDV?$vector@UImportInfo@SegmentHeader@@V?$allocator@UImportInfo@SegmentHeader@@@std@@@std@@@std@@@2@$0A@@std@@@std@@@?$_Tree@V?$_Tmap_traits@PBDV?$vector@UImportInfo@SegmentHeader@@V?$allocator@UImportInfo@SegmentHeader@@@std@@@std@@U?$less@PBD@2@V?$allocator@U?$pair@QBDV?$vector@UImportInfo@SegmentHeader@@V?$allocator@UImportInfo@SegmentHeader@@@std@@@std@@@std@@@2@$0A@@std@@@std@@IAEPAU?$_Tree_node@U?$pair@QBDV?$vector@UImportInfo@SegmentHeader@@V?$allocator@UImportInfo@SegmentHeader@@@std@@@std@@@std@@PAX@1@PAU21@0U_Copy_tag@01@@Z ; std::_Tree<std::_Tmap_traits<char const *,std::vector<SegmentHeader::ImportInfo,std::allocator<SegmentHeader::ImportInfo> >,std::less<char const *>,std::allocator<std::pair<char const * const,std::vector<SegmentHeader::ImportInfo,std::allocator<SegmentHeader::ImportInfo> > > >,0> >::_Copy_nodes<std::_Tree<std::_Tmap_traits<char const *,std::vector<SegmentHeader::ImportInfo,std::allocator<SegmentHeader::ImportInfo> >,std::less<char const *>,std::allocator<std::pair<char const * const,std::vector<SegmentHeader::ImportInfo,std::allocator<SegmentHeader::ImportInfo> > > >,0> >::_Copy_tag>
PUBLIC	??$?0ABU?$less@PBD@std@@U_One_then_variadic_args_t@1@V?$allocator@U?$_Tree_node@U?$pair@QBDV?$vector@UImportInfo@SegmentHeader@@V?$allocator@UImportInfo@SegmentHeader@@@std@@@std@@@std@@PAX@std@@@1@@?$_Compressed_pair@U?$less@PBD@std@@V?$_Compressed_pair@V?$allocator@U?$_Tree_node@U?$pair@QBDV?$vector@UImportInfo@SegmentHeader@@V?$allocator@UImportInfo@SegmentHeader@@@std@@@std@@@std@@PAX@std@@@std@@V?$_Tree_val@U?$_Tree_simple_types@U?$pair@QBDV?$vector@UImportInfo@SegmentHeader@@V?$allocator@UImportInfo@SegmentHeader@@@std@@@std@@@std@@@std@@@2@$00@2@$00@std@@QAE@U_One_then_variadic_args_t@1@ABU?$less@PBD@1@$$QAU21@$$QAV?$allocator@U?$_Tree_node@U?$pair@QBDV?$vector@UImportInfo@SegmentHeader@@V?$allocator@UImportInfo@SegmentHeader@@@std@@@std@@@std@@PAX@std@@@1@@Z ; std::_Compressed_pair<std::less<char const *>,std::_Compressed_pair<std::allocator<std::_Tree_node<std::pair<char const * const,std::vector<SegmentHeader::ImportInfo,std::allocator<SegmentHeader::ImportInfo> > >,void *> >,std::_Tree_val<std::_Tree_simple_types<std::pair<char const * const,std::vector<SegmentHeader::ImportInfo,std::allocator<SegmentHeader::ImportInfo> > > > >,1>,1>::_Compressed_pair<std::less<char const *>,std::_Compressed_pair<std::allocator<std::_Tree_node<std::pair<char const * const,std::vector<SegmentHeader::ImportInfo,std::allocator<SegmentHeader::ImportInfo> > >,void *> >,std::_Tree_val<std::_Tree_simple_types<std::pair<char const * const,std::vector<SegmentHeader::ImportInfo,std::allocator<SegmentHeader::ImportInfo> > > > >,1>,1><std::less<char const *> const &,std::_One_then_variadic_args_t,std::allocator<std::_Tree_node<std::pair<char const * const,std::vector<SegmentHeader::ImportInfo,std::allocator<SegmentHeader::ImportInfo> > >,void *> > >
PUBLIC	?_Get_second@?$_Compressed_pair@V?$allocator@U?$_Tree_node@U?$pair@QBDV?$vector@UImportInfo@SegmentHeader@@V?$allocator@UImportInfo@SegmentHeader@@@std@@@std@@@std@@PAX@std@@@std@@V?$_Tree_val@U?$_Tree_simple_types@U?$pair@QBDV?$vector@UImportInfo@SegmentHeader@@V?$allocator@UImportInfo@SegmentHeader@@@std@@@std@@@std@@@std@@@2@$00@std@@QBEABV?$_Tree_val@U?$_Tree_simple_types@U?$pair@QBDV?$vector@UImportInfo@SegmentHeader@@V?$allocator@UImportInfo@SegmentHeader@@@std@@@std@@@std@@@std@@@2@XZ ; std::_Compressed_pair<std::allocator<std::_Tree_node<std::pair<char const * const,std::vector<SegmentHeader::ImportInfo,std::allocator<SegmentHeader::ImportInfo> > >,void *> >,std::_Tree_val<std::_Tree_simple_types<std::pair<char const * const,std::vector<SegmentHeader::ImportInfo,std::allocator<SegmentHeader::ImportInfo> > > > >,1>::_Get_second
PUBLIC	?size@?$_Tree@V?$_Tmap_traits@PBDV?$vector@UImportInfo@SegmentHeader@@V?$allocator@UImportInfo@SegmentHeader@@@std@@@std@@U?$less@PBD@2@V?$allocator@U?$pair@QBDV?$vector@UImportInfo@SegmentHeader@@V?$allocator@UImportInfo@SegmentHeader@@@std@@@std@@@std@@@2@$0A@@std@@@std@@QBEIXZ ; std::_Tree<std::_Tmap_traits<char const *,std::vector<SegmentHeader::ImportInfo,std::allocator<SegmentHeader::ImportInfo> >,std::less<char const *>,std::allocator<std::pair<char const * const,std::vector<SegmentHeader::ImportInfo,std::allocator<SegmentHeader::ImportInfo> > > >,0> >::size
PUBLIC	?_Get_data@?$_Tree_comp_alloc@V?$_Tmap_traits@PBDV?$vector@UImportInfo@SegmentHeader@@V?$allocator@UImportInfo@SegmentHeader@@@std@@@std@@U?$less@PBD@2@V?$allocator@U?$pair@QBDV?$vector@UImportInfo@SegmentHeader@@V?$allocator@UImportInfo@SegmentHeader@@@std@@@std@@@std@@@2@$0A@@std@@@std@@QBEABV?$_Tree_val@U?$_Tree_simple_types@U?$pair@QBDV?$vector@UImportInfo@SegmentHeader@@V?$allocator@UImportInfo@SegmentHeader@@@std@@@std@@@std@@@std@@@2@XZ ; std::_Tree_comp_alloc<std::_Tmap_traits<char const *,std::vector<SegmentHeader::ImportInfo,std::allocator<SegmentHeader::ImportInfo> >,std::less<char const *>,std::allocator<std::pair<char const * const,std::vector<SegmentHeader::ImportInfo,std::allocator<SegmentHeader::ImportInfo> > > >,0> >::_Get_data
PUBLIC	??0?$_Tree_val@U?$_Tree_simple_types@U?$pair@QBDV?$vector@UImportInfo@SegmentHeader@@V?$allocator@UImportInfo@SegmentHeader@@@std@@@std@@@std@@@std@@@std@@QAE@XZ ; std::_Tree_val<std::_Tree_simple_types<std::pair<char const * const,std::vector<SegmentHeader::ImportInfo,std::allocator<SegmentHeader::ImportInfo> > > > >::_Tree_val<std::_Tree_simple_types<std::pair<char const * const,std::vector<SegmentHeader::ImportInfo,std::allocator<SegmentHeader::ImportInfo> > > > >
PUBLIC	??$_Destroy_range@V?$allocator@UImportInfo@SegmentHeader@@@std@@@std@@YAXPAUImportInfo@SegmentHeader@@0AAV?$allocator@UImportInfo@SegmentHeader@@@0@@Z ; std::_Destroy_range<std::allocator<SegmentHeader::ImportInfo> >
PUBLIC	??$forward@AAPAU?$_Tree_node@U?$pair@QBDV?$vector@UImportInfo@SegmentHeader@@V?$allocator@UImportInfo@SegmentHeader@@@std@@@std@@@std@@PAX@std@@@std@@YAAAPAU?$_Tree_node@U?$pair@QBDV?$vector@UImportInfo@SegmentHeader@@V?$allocator@UImportInfo@SegmentHeader@@@std@@@std@@@std@@PAX@0@AAPAU10@@Z ; std::forward<std::_Tree_node<std::pair<char const * const,std::vector<SegmentHeader::ImportInfo,std::allocator<SegmentHeader::ImportInfo> > >,void *> * &>
PUBLIC	??$move@AAD@std@@YA$$QADAAD@Z			; std::move<char &>
PUBLIC	??$?0ABV?$allocator@D@std@@$$V@?$_Compressed_pair@V?$allocator@D@std@@V?$_String_val@U?$_Simple_types@D@std@@@2@$00@std@@QAE@U_One_then_variadic_args_t@1@ABV?$allocator@D@1@@Z ; std::_Compressed_pair<std::allocator<char>,std::_String_val<std::_Simple_types<char> >,1>::_Compressed_pair<std::allocator<char>,std::_String_val<std::_Simple_types<char> >,1><std::allocator<char> const &>
PUBLIC	??$forward@ABV?$allocator@D@std@@@std@@YAABV?$allocator@D@0@ABV10@@Z ; std::forward<std::allocator<char> const &>
PUBLIC	??$forward@ABU?$less@PBD@std@@@std@@YAABU?$less@PBD@0@ABU10@@Z ; std::forward<std::less<char const *> const &>
PUBLIC	??$destroy@PAU?$_Tree_node@U?$pair@QBDV?$vector@UImportInfo@SegmentHeader@@V?$allocator@UImportInfo@SegmentHeader@@@std@@@std@@@std@@PAX@std@@@?$_Default_allocator_traits@V?$allocator@U?$_Tree_node@U?$pair@QBDV?$vector@UImportInfo@SegmentHeader@@V?$allocator@UImportInfo@SegmentHeader@@@std@@@std@@@std@@PAX@std@@@std@@@std@@SAXAAV?$allocator@U?$_Tree_node@U?$pair@QBDV?$vector@UImportInfo@SegmentHeader@@V?$allocator@UImportInfo@SegmentHeader@@@std@@@std@@@std@@PAX@std@@@1@QAPAU?$_Tree_node@U?$pair@QBDV?$vector@UImportInfo@SegmentHeader@@V?$allocator@UImportInfo@SegmentHeader@@@std@@@std@@@std@@PAX@1@@Z ; std::_Default_allocator_traits<std::allocator<std::_Tree_node<std::pair<char const * const,std::vector<SegmentHeader::ImportInfo,std::allocator<SegmentHeader::ImportInfo> > >,void *> > >::destroy<std::_Tree_node<std::pair<char const * const,std::vector<SegmentHeader::ImportInfo,std::allocator<SegmentHeader::ImportInfo> > >,void *> *>
PUBLIC	??$_Uninitialized_copy@PAKPAKV?$allocator@K@std@@@std@@YAPAKQAK0PAKAAV?$allocator@K@0@@Z ; std::_Uninitialized_copy<unsigned long *,unsigned long *,std::allocator<unsigned long> >
PUBLIC	??$?0V?$allocator@K@std@@$$V@?$_Compressed_pair@V?$allocator@K@std@@V?$_Vector_val@U?$_Simple_types@K@std@@@2@$00@std@@QAE@U_One_then_variadic_args_t@1@$$QAV?$allocator@K@1@@Z ; std::_Compressed_pair<std::allocator<unsigned long>,std::_Vector_val<std::_Simple_types<unsigned long> >,1>::_Compressed_pair<std::allocator<unsigned long>,std::_Vector_val<std::_Simple_types<unsigned long> >,1><std::allocator<unsigned long> >
PUBLIC	??$forward@V?$allocator@K@std@@@std@@YA$$QAV?$allocator@K@0@AAV10@@Z ; std::forward<std::allocator<unsigned long> >
PUBLIC	??$_Copy@U_Copy_tag@?$_Tree@V?$_Tmap_traits@PBDV?$vector@UImportInfo@SegmentHeader@@V?$allocator@UImportInfo@SegmentHeader@@@std@@@std@@U?$less@PBD@2@V?$allocator@U?$pair@QBDV?$vector@UImportInfo@SegmentHeader@@V?$allocator@UImportInfo@SegmentHeader@@@std@@@std@@@std@@@2@$0A@@std@@@std@@@?$_Tree@V?$_Tmap_traits@PBDV?$vector@UImportInfo@SegmentHeader@@V?$allocator@UImportInfo@SegmentHeader@@@std@@@std@@U?$less@PBD@2@V?$allocator@U?$pair@QBDV?$vector@UImportInfo@SegmentHeader@@V?$allocator@UImportInfo@SegmentHeader@@@std@@@std@@@std@@@2@$0A@@std@@@std@@IAEXABV01@U_Copy_tag@01@@Z ; std::_Tree<std::_Tmap_traits<char const *,std::vector<SegmentHeader::ImportInfo,std::allocator<SegmentHeader::ImportInfo> >,std::less<char const *>,std::allocator<std::pair<char const * const,std::vector<SegmentHeader::ImportInfo,std::allocator<SegmentHeader::ImportInfo> > > >,0> >::_Copy<std::_Tree<std::_Tmap_traits<char const *,std::vector<SegmentHeader::ImportInfo,std::allocator<SegmentHeader::ImportInfo> >,std::less<char const *>,std::allocator<std::pair<char const * const,std::vector<SegmentHeader::ImportInfo,std::allocator<SegmentHeader::ImportInfo> > > >,0> >::_Copy_tag>
PUBLIC	??$?0V?$allocator@U?$_Tree_node@U?$pair@QBDV?$vector@UImportInfo@SegmentHeader@@V?$allocator@UImportInfo@SegmentHeader@@@std@@@std@@@std@@PAX@std@@@std@@X@?$_Tree_comp_alloc@V?$_Tmap_traits@PBDV?$vector@UImportInfo@SegmentHeader@@V?$allocator@UImportInfo@SegmentHeader@@@std@@@std@@U?$less@PBD@2@V?$allocator@U?$pair@QBDV?$vector@UImportInfo@SegmentHeader@@V?$allocator@UImportInfo@SegmentHeader@@@std@@@std@@@std@@@2@$0A@@std@@@std@@QAE@ABU?$less@PBD@1@$$QAV?$allocator@U?$_Tree_node@U?$pair@QBDV?$vector@UImportInfo@SegmentHeader@@V?$allocator@UImportInfo@SegmentHeader@@@std@@@std@@@std@@PAX@std@@@1@@Z ; std::_Tree_comp_alloc<std::_Tmap_traits<char const *,std::vector<SegmentHeader::ImportInfo,std::allocator<SegmentHeader::ImportInfo> >,std::less<char const *>,std::allocator<std::pair<char const * const,std::vector<SegmentHeader::ImportInfo,std::allocator<SegmentHeader::ImportInfo> > > >,0> >::_Tree_comp_alloc<std::_Tmap_traits<char const *,std::vector<SegmentHeader::ImportInfo,std::allocator<SegmentHeader::ImportInfo> >,std::less<char const *>,std::allocator<std::pair<char const * const,std::vector<SegmentHeader::ImportInfo,std::allocator<SegmentHeader::ImportInfo> > > >,0> ><std::allocator<std::_Tree_node<std::pair<char const * const,std::vector<SegmentHeader::ImportInfo,std::allocator<SegmentHeader::ImportInfo> > >,void *> >,void>
PUBLIC	??$forward@V?$allocator@U?$_Tree_node@U?$pair@QBDV?$vector@UImportInfo@SegmentHeader@@V?$allocator@UImportInfo@SegmentHeader@@@std@@@std@@@std@@PAX@std@@@std@@@std@@YA$$QAV?$allocator@U?$_Tree_node@U?$pair@QBDV?$vector@UImportInfo@SegmentHeader@@V?$allocator@UImportInfo@SegmentHeader@@@std@@@std@@@std@@PAX@std@@@0@AAV10@@Z ; std::forward<std::allocator<std::_Tree_node<std::pair<char const * const,std::vector<SegmentHeader::ImportInfo,std::allocator<SegmentHeader::ImportInfo> > >,void *> > >
PUBLIC	?_Get_second@?$_Compressed_pair@V?$allocator@UImportInfo@SegmentHeader@@@std@@V?$_Vector_val@U?$_Simple_types@UImportInfo@SegmentHeader@@@std@@@2@$00@std@@QAEAAV?$_Vector_val@U?$_Simple_types@UImportInfo@SegmentHeader@@@std@@@2@XZ ; std::_Compressed_pair<std::allocator<SegmentHeader::ImportInfo>,std::_Vector_val<std::_Simple_types<SegmentHeader::ImportInfo> >,1>::_Get_second
PUBLIC	?_Get_data@?$_Vector_alloc@U?$_Vec_base_types@UImportInfo@SegmentHeader@@V?$allocator@UImportInfo@SegmentHeader@@@std@@@std@@@std@@QAEAAV?$_Vector_val@U?$_Simple_types@UImportInfo@SegmentHeader@@@std@@@2@XZ ; std::_Vector_alloc<std::_Vec_base_types<SegmentHeader::ImportInfo,std::allocator<SegmentHeader::ImportInfo> > >::_Get_data
PUBLIC	?_Myend@?$_Vector_alloc@U?$_Vec_base_types@UImportInfo@SegmentHeader@@V?$allocator@UImportInfo@SegmentHeader@@@std@@@std@@@std@@QBEABQAUImportInfo@SegmentHeader@@XZ ; std::_Vector_alloc<std::_Vec_base_types<SegmentHeader::ImportInfo,std::allocator<SegmentHeader::ImportInfo> > >::_Myend
PUBLIC	?_Get_first@?$_Compressed_pair@V?$allocator@UImportInfo@SegmentHeader@@@std@@V?$_Vector_val@U?$_Simple_types@UImportInfo@SegmentHeader@@@std@@@2@$00@std@@QAEAAV?$allocator@UImportInfo@SegmentHeader@@@2@XZ ; std::_Compressed_pair<std::allocator<SegmentHeader::ImportInfo>,std::_Vector_val<std::_Simple_types<SegmentHeader::ImportInfo> >,1>::_Get_first
PUBLIC	?deallocate@?$allocator@UImportInfo@SegmentHeader@@@std@@QAEXQAUImportInfo@SegmentHeader@@I@Z ; std::allocator<SegmentHeader::ImportInfo>::deallocate
PUBLIC	?capacity@?$vector@UImportInfo@SegmentHeader@@V?$allocator@UImportInfo@SegmentHeader@@@std@@@std@@QBEIXZ ; std::vector<SegmentHeader::ImportInfo,std::allocator<SegmentHeader::ImportInfo> >::capacity
PUBLIC	?_Destroy@?$vector@UImportInfo@SegmentHeader@@V?$allocator@UImportInfo@SegmentHeader@@@std@@@std@@AAEXPAUImportInfo@SegmentHeader@@0@Z ; std::vector<SegmentHeader::ImportInfo,std::allocator<SegmentHeader::ImportInfo> >::_Destroy
PUBLIC	?_Get_first@?$_Compressed_pair@U?$less@PBD@std@@V?$_Compressed_pair@V?$allocator@U?$_Tree_node@U?$pair@QBDV?$vector@UImportInfo@SegmentHeader@@V?$allocator@UImportInfo@SegmentHeader@@@std@@@std@@@std@@PAX@std@@@std@@V?$_Tree_val@U?$_Tree_simple_types@U?$pair@QBDV?$vector@UImportInfo@SegmentHeader@@V?$allocator@UImportInfo@SegmentHeader@@@std@@@std@@@std@@@std@@@2@$00@2@$00@std@@QBEABU?$less@PBD@2@XZ ; std::_Compressed_pair<std::less<char const *>,std::_Compressed_pair<std::allocator<std::_Tree_node<std::pair<char const * const,std::vector<SegmentHeader::ImportInfo,std::allocator<SegmentHeader::ImportInfo> > >,void *> >,std::_Tree_val<std::_Tree_simple_types<std::pair<char const * const,std::vector<SegmentHeader::ImportInfo,std::allocator<SegmentHeader::ImportInfo> > > > >,1>,1>::_Get_first
PUBLIC	?_Orphan_all@?$_Vector_alloc@U?$_Vec_base_types@UImportInfo@SegmentHeader@@V?$allocator@UImportInfo@SegmentHeader@@@std@@@std@@@std@@QAEXXZ ; std::_Vector_alloc<std::_Vec_base_types<SegmentHeader::ImportInfo,std::allocator<SegmentHeader::ImportInfo> > >::_Orphan_all
PUBLIC	?_Getal@?$_Vector_alloc@U?$_Vec_base_types@UImportInfo@SegmentHeader@@V?$allocator@UImportInfo@SegmentHeader@@@std@@@std@@@std@@QAEAAV?$allocator@UImportInfo@SegmentHeader@@@2@XZ ; std::_Vector_alloc<std::_Vec_base_types<SegmentHeader::ImportInfo,std::allocator<SegmentHeader::ImportInfo> > >::_Getal
PUBLIC	?_Myfirst@?$_Vector_alloc@U?$_Vec_base_types@UImportInfo@SegmentHeader@@V?$allocator@UImportInfo@SegmentHeader@@@std@@@std@@@std@@QAEAAPAUImportInfo@SegmentHeader@@XZ ; std::_Vector_alloc<std::_Vec_base_types<SegmentHeader::ImportInfo,std::allocator<SegmentHeader::ImportInfo> > >::_Myfirst
PUBLIC	?_Mylast@?$_Vector_alloc@U?$_Vec_base_types@UImportInfo@SegmentHeader@@V?$allocator@UImportInfo@SegmentHeader@@@std@@@std@@@std@@QAEAAPAUImportInfo@SegmentHeader@@XZ ; std::_Vector_alloc<std::_Vec_base_types<SegmentHeader::ImportInfo,std::allocator<SegmentHeader::ImportInfo> > >::_Mylast
PUBLIC	?_Myend@?$_Vector_alloc@U?$_Vec_base_types@UImportInfo@SegmentHeader@@V?$allocator@UImportInfo@SegmentHeader@@@std@@@std@@@std@@QAEAAPAUImportInfo@SegmentHeader@@XZ ; std::_Vector_alloc<std::_Vec_base_types<SegmentHeader::ImportInfo,std::allocator<SegmentHeader::ImportInfo> > >::_Myend
PUBLIC	?_Tidy@?$vector@UImportInfo@SegmentHeader@@V?$allocator@UImportInfo@SegmentHeader@@@std@@@std@@AAEXXZ ; std::vector<SegmentHeader::ImportInfo,std::allocator<SegmentHeader::ImportInfo> >::_Tidy
PUBLIC	?_Getcomp@?$_Tree_comp_alloc@V?$_Tmap_traits@PBDV?$vector@UImportInfo@SegmentHeader@@V?$allocator@UImportInfo@SegmentHeader@@@std@@@std@@U?$less@PBD@2@V?$allocator@U?$pair@QBDV?$vector@UImportInfo@SegmentHeader@@V?$allocator@UImportInfo@SegmentHeader@@@std@@@std@@@std@@@2@$0A@@std@@@std@@QBEABU?$less@PBD@2@XZ ; std::_Tree_comp_alloc<std::_Tmap_traits<char const *,std::vector<SegmentHeader::ImportInfo,std::allocator<SegmentHeader::ImportInfo> >,std::less<char const *>,std::allocator<std::pair<char const * const,std::vector<SegmentHeader::ImportInfo,std::allocator<SegmentHeader::ImportInfo> > > >,0> >::_Getcomp
PUBLIC	??1?$vector@UImportInfo@SegmentHeader@@V?$allocator@UImportInfo@SegmentHeader@@@std@@@std@@QAE@XZ ; std::vector<SegmentHeader::ImportInfo,std::allocator<SegmentHeader::ImportInfo> >::~vector<SegmentHeader::ImportInfo,std::allocator<SegmentHeader::ImportInfo> >
PUBLIC	?key_comp@?$_Tree@V?$_Tmap_traits@PBDV?$vector@UImportInfo@SegmentHeader@@V?$allocator@UImportInfo@SegmentHeader@@@std@@@std@@U?$less@PBD@2@V?$allocator@U?$pair@QBDV?$vector@UImportInfo@SegmentHeader@@V?$allocator@UImportInfo@SegmentHeader@@@std@@@std@@@std@@@2@$0A@@std@@@std@@QBE?AU?$less@PBD@2@XZ ; std::_Tree<std::_Tmap_traits<char const *,std::vector<SegmentHeader::ImportInfo,std::allocator<SegmentHeader::ImportInfo> >,std::less<char const *>,std::allocator<std::pair<char const * const,std::vector<SegmentHeader::ImportInfo,std::allocator<SegmentHeader::ImportInfo> > > >,0> >::key_comp
PUBLIC	?deallocate@?$_Default_allocator_traits@V?$allocator@U?$_Tree_node@U?$pair@QBDV?$vector@UImportInfo@SegmentHeader@@V?$allocator@UImportInfo@SegmentHeader@@@std@@@std@@@std@@PAX@std@@@std@@@std@@SAXAAV?$allocator@U?$_Tree_node@U?$pair@QBDV?$vector@UImportInfo@SegmentHeader@@V?$allocator@UImportInfo@SegmentHeader@@@std@@@std@@@std@@PAX@std@@@2@QAU?$_Tree_node@U?$pair@QBDV?$vector@UImportInfo@SegmentHeader@@V?$allocator@UImportInfo@SegmentHeader@@@std@@@std@@@std@@PAX@2@I@Z ; std::_Default_allocator_traits<std::allocator<std::_Tree_node<std::pair<char const * const,std::vector<SegmentHeader::ImportInfo,std::allocator<SegmentHeader::ImportInfo> > >,void *> > >::deallocate
PUBLIC	??1?$pair@QBDV?$vector@UImportInfo@SegmentHeader@@V?$allocator@UImportInfo@SegmentHeader@@@std@@@std@@@std@@QAE@XZ ; std::pair<char const * const,std::vector<SegmentHeader::ImportInfo,std::allocator<SegmentHeader::ImportInfo> > >::~pair<char const * const,std::vector<SegmentHeader::ImportInfo,std::allocator<SegmentHeader::ImportInfo> > >
PUBLIC	??_G?$pair@QBDV?$vector@UImportInfo@SegmentHeader@@V?$allocator@UImportInfo@SegmentHeader@@@std@@@std@@@std@@QAEPAXI@Z ; std::pair<char const * const,std::vector<SegmentHeader::ImportInfo,std::allocator<SegmentHeader::ImportInfo> > >::`scalar deleting destructor'
PUBLIC	??$_Get_size_of_n@$0CA@@std@@YAII@Z		; std::_Get_size_of_n<32>
PUBLIC	??$construct@PAU?$_Tree_node@U?$pair@QBDV?$vector@UImportInfo@SegmentHeader@@V?$allocator@UImportInfo@SegmentHeader@@@std@@@std@@@std@@PAX@std@@AAPAU12@@?$_Default_allocator_traits@V?$allocator@U?$_Tree_node@U?$pair@QBDV?$vector@UImportInfo@SegmentHeader@@V?$allocator@UImportInfo@SegmentHeader@@@std@@@std@@@std@@PAX@std@@@std@@@std@@SAXAAV?$allocator@U?$_Tree_node@U?$pair@QBDV?$vector@UImportInfo@SegmentHeader@@V?$allocator@UImportInfo@SegmentHeader@@@std@@@std@@@std@@PAX@std@@@1@QAPAU?$_Tree_node@U?$pair@QBDV?$vector@UImportInfo@SegmentHeader@@V?$allocator@UImportInfo@SegmentHeader@@@std@@@std@@@std@@PAX@1@AAPAU31@@Z ; std::_Default_allocator_traits<std::allocator<std::_Tree_node<std::pair<char const * const,std::vector<SegmentHeader::ImportInfo,std::allocator<SegmentHeader::ImportInfo> > >,void *> > >::construct<std::_Tree_node<std::pair<char const * const,std::vector<SegmentHeader::ImportInfo,std::allocator<SegmentHeader::ImportInfo> > >,void *> *,std::_Tree_node<std::pair<char const * const,std::vector<SegmentHeader::ImportInfo,std::allocator<SegmentHeader::ImportInfo> > >,void *> * &>
PUBLIC	??$addressof@PAU?$_Tree_node@U?$pair@QBDV?$vector@UImportInfo@SegmentHeader@@V?$allocator@UImportInfo@SegmentHeader@@@std@@@std@@@std@@PAX@std@@@std@@YAPAPAU?$_Tree_node@U?$pair@QBDV?$vector@UImportInfo@SegmentHeader@@V?$allocator@UImportInfo@SegmentHeader@@@std@@@std@@@std@@PAX@0@AAPAU10@@Z ; std::addressof<std::_Tree_node<std::pair<char const * const,std::vector<SegmentHeader::ImportInfo,std::allocator<SegmentHeader::ImportInfo> > >,void *> *>
PUBLIC	??$swap@DX@std@@YAXAAD0@Z			; std::swap<char,void>
PUBLIC	??$destroy@U?$pair@QBDV?$vector@UImportInfo@SegmentHeader@@V?$allocator@UImportInfo@SegmentHeader@@@std@@@std@@@std@@@?$_Default_allocator_traits@V?$allocator@U?$_Tree_node@U?$pair@QBDV?$vector@UImportInfo@SegmentHeader@@V?$allocator@UImportInfo@SegmentHeader@@@std@@@std@@@std@@PAX@std@@@std@@@std@@SAXAAV?$allocator@U?$_Tree_node@U?$pair@QBDV?$vector@UImportInfo@SegmentHeader@@V?$allocator@UImportInfo@SegmentHeader@@@std@@@std@@@std@@PAX@std@@@1@QAU?$pair@QBDV?$vector@UImportInfo@SegmentHeader@@V?$allocator@UImportInfo@SegmentHeader@@@std@@@std@@@1@@Z ; std::_Default_allocator_traits<std::allocator<std::_Tree_node<std::pair<char const * const,std::vector<SegmentHeader::ImportInfo,std::allocator<SegmentHeader::ImportInfo> > >,void *> > >::destroy<std::pair<char const * const,std::vector<SegmentHeader::ImportInfo,std::allocator<SegmentHeader::ImportInfo> > > >
PUBLIC	??$addressof@U?$pair@QBDV?$vector@UImportInfo@SegmentHeader@@V?$allocator@UImportInfo@SegmentHeader@@@std@@@std@@@std@@@std@@YAPAU?$pair@QBDV?$vector@UImportInfo@SegmentHeader@@V?$allocator@UImportInfo@SegmentHeader@@@std@@@std@@@0@AAU10@@Z ; std::addressof<std::pair<char const * const,std::vector<SegmentHeader::ImportInfo,std::allocator<SegmentHeader::ImportInfo> > > >
PUBLIC	??$?0ABV?$allocator@D@std@@X@?$_String_alloc@U?$_String_base_types@DV?$allocator@D@std@@@std@@@std@@QAE@ABV?$allocator@D@1@@Z ; std::_String_alloc<std::_String_base_types<char,std::allocator<char> > >::_String_alloc<std::_String_base_types<char,std::allocator<char> > ><std::allocator<char> const &,void>
PUBLIC	??$addressof@V?$_Tree_val@U?$_Tree_simple_types@U?$pair@QBDV?$vector@UImportInfo@SegmentHeader@@V?$allocator@UImportInfo@SegmentHeader@@@std@@@std@@@std@@@std@@@std@@@std@@YAPAV?$_Tree_val@U?$_Tree_simple_types@U?$pair@QBDV?$vector@UImportInfo@SegmentHeader@@V?$allocator@UImportInfo@SegmentHeader@@@std@@@std@@@std@@@std@@@0@AAV10@@Z ; std::addressof<std::_Tree_val<std::_Tree_simple_types<std::pair<char const * const,std::vector<SegmentHeader::ImportInfo,std::allocator<SegmentHeader::ImportInfo> > > > > >
PUBLIC	??$_Freenode0@V?$allocator@U?$_Tree_node@U?$pair@QBDV?$vector@UImportInfo@SegmentHeader@@V?$allocator@UImportInfo@SegmentHeader@@@std@@@std@@@std@@PAX@std@@@std@@@?$_Tree_node@U?$pair@QBDV?$vector@UImportInfo@SegmentHeader@@V?$allocator@UImportInfo@SegmentHeader@@@std@@@std@@@std@@PAX@std@@SAXAAV?$allocator@U?$_Tree_node@U?$pair@QBDV?$vector@UImportInfo@SegmentHeader@@V?$allocator@UImportInfo@SegmentHeader@@@std@@@std@@@std@@PAX@std@@@1@PAU01@@Z ; std::_Tree_node<std::pair<char const * const,std::vector<SegmentHeader::ImportInfo,std::allocator<SegmentHeader::ImportInfo> > >,void *>::_Freenode0<std::allocator<std::_Tree_node<std::pair<char const * const,std::vector<SegmentHeader::ImportInfo,std::allocator<SegmentHeader::ImportInfo> > >,void *> > >
PUBLIC	??$addressof@D@std@@YAPADAAD@Z			; std::addressof<char>
PUBLIC	??$_Max_value@PAD@std@@YAABQADABQAD0@Z		; std::_Max_value<char *>
PUBLIC	??$_Ucopy@PAK@?$vector@KV?$allocator@K@std@@@std@@AAEPAKPAK00@Z ; std::vector<unsigned long,std::allocator<unsigned long> >::_Ucopy<unsigned long *>
PUBLIC	??$?0V?$allocator@K@std@@X@?$_Vector_alloc@U?$_Vec_base_types@KV?$allocator@K@std@@@std@@@std@@QAE@$$QAV?$allocator@K@1@@Z ; std::_Vector_alloc<std::_Vec_base_types<unsigned long,std::allocator<unsigned long> > >::_Vector_alloc<std::_Vec_base_types<unsigned long,std::allocator<unsigned long> > ><std::allocator<unsigned long>,void>
PUBLIC	??$?0V?$allocator@U?$_Tree_node@U?$pair@QBDV?$vector@UImportInfo@SegmentHeader@@V?$allocator@UImportInfo@SegmentHeader@@@std@@@std@@@std@@PAX@std@@@std@@@?$_Tree@V?$_Tmap_traits@PBDV?$vector@UImportInfo@SegmentHeader@@V?$allocator@UImportInfo@SegmentHeader@@@std@@@std@@U?$less@PBD@2@V?$allocator@U?$pair@QBDV?$vector@UImportInfo@SegmentHeader@@V?$allocator@UImportInfo@SegmentHeader@@@std@@@std@@@std@@@2@$0A@@std@@@std@@QAE@ABV01@$$QAV?$allocator@U?$_Tree_node@U?$pair@QBDV?$vector@UImportInfo@SegmentHeader@@V?$allocator@UImportInfo@SegmentHeader@@@std@@@std@@@std@@PAX@std@@@1@@Z ; std::_Tree<std::_Tmap_traits<char const *,std::vector<SegmentHeader::ImportInfo,std::allocator<SegmentHeader::ImportInfo> >,std::less<char const *>,std::allocator<std::pair<char const * const,std::vector<SegmentHeader::ImportInfo,std::allocator<SegmentHeader::ImportInfo> > > >,0> >::_Tree<std::_Tmap_traits<char const *,std::vector<SegmentHeader::ImportInfo,std::allocator<SegmentHeader::ImportInfo> >,std::less<char const *>,std::allocator<std::pair<char const * const,std::vector<SegmentHeader::ImportInfo,std::allocator<SegmentHeader::ImportInfo> > > >,0> ><std::allocator<std::_Tree_node<std::pair<char const * const,std::vector<SegmentHeader::ImportInfo,std::allocator<SegmentHeader::ImportInfo> > >,void *> > >
PUBLIC	?deallocate@?$allocator@U?$_Tree_node@U?$pair@QBDV?$vector@UImportInfo@SegmentHeader@@V?$allocator@UImportInfo@SegmentHeader@@@std@@@std@@@std@@PAX@std@@@std@@QAEXQAU?$_Tree_node@U?$pair@QBDV?$vector@UImportInfo@SegmentHeader@@V?$allocator@UImportInfo@SegmentHeader@@@std@@@std@@@std@@PAX@2@I@Z ; std::allocator<std::_Tree_node<std::pair<char const * const,std::vector<SegmentHeader::ImportInfo,std::allocator<SegmentHeader::ImportInfo> > >,void *> >::deallocate
PUBLIC	?allocate@?$allocator@U?$_Tree_node@U?$pair@QBDV?$vector@UImportInfo@SegmentHeader@@V?$allocator@UImportInfo@SegmentHeader@@@std@@@std@@@std@@PAX@std@@@std@@QAEPAU?$_Tree_node@U?$pair@QBDV?$vector@UImportInfo@SegmentHeader@@V?$allocator@UImportInfo@SegmentHeader@@@std@@@std@@@std@@PAX@2@I@Z ; std::allocator<std::_Tree_node<std::pair<char const * const,std::vector<SegmentHeader::ImportInfo,std::allocator<SegmentHeader::ImportInfo> > >,void *> >::allocate
PUBLIC	?_Max@?$_Tree_val@U?$_Tree_simple_types@U?$pair@QBDV?$vector@UImportInfo@SegmentHeader@@V?$allocator@UImportInfo@SegmentHeader@@@std@@@std@@@std@@@std@@@std@@SAPAU?$_Tree_node@U?$pair@QBDV?$vector@UImportInfo@SegmentHeader@@V?$allocator@UImportInfo@SegmentHeader@@@std@@@std@@@std@@PAX@2@PAU32@@Z ; std::_Tree_val<std::_Tree_simple_types<std::pair<char const * const,std::vector<SegmentHeader::ImportInfo,std::allocator<SegmentHeader::ImportInfo> > > > >::_Max
PUBLIC	?_Lrotate@?$_Tree_val@U?$_Tree_simple_types@U?$pair@QBDV?$vector@UImportInfo@SegmentHeader@@V?$allocator@UImportInfo@SegmentHeader@@@std@@@std@@@std@@@std@@@std@@QAEXPAU?$_Tree_node@U?$pair@QBDV?$vector@UImportInfo@SegmentHeader@@V?$allocator@UImportInfo@SegmentHeader@@@std@@@std@@@std@@PAX@2@@Z ; std::_Tree_val<std::_Tree_simple_types<std::pair<char const * const,std::vector<SegmentHeader::ImportInfo,std::allocator<SegmentHeader::ImportInfo> > > > >::_Lrotate
PUBLIC	?_Rrotate@?$_Tree_val@U?$_Tree_simple_types@U?$pair@QBDV?$vector@UImportInfo@SegmentHeader@@V?$allocator@UImportInfo@SegmentHeader@@@std@@@std@@@std@@@std@@@std@@QAEXPAU?$_Tree_node@U?$pair@QBDV?$vector@UImportInfo@SegmentHeader@@V?$allocator@UImportInfo@SegmentHeader@@@std@@@std@@@std@@PAX@2@@Z ; std::_Tree_val<std::_Tree_simple_types<std::pair<char const * const,std::vector<SegmentHeader::ImportInfo,std::allocator<SegmentHeader::ImportInfo> > > > >::_Rrotate
PUBLIC	?_Erase@?$_Tree@V?$_Tmap_traits@PBDV?$vector@UImportInfo@SegmentHeader@@V?$allocator@UImportInfo@SegmentHeader@@@std@@@std@@U?$less@PBD@2@V?$allocator@U?$pair@QBDV?$vector@UImportInfo@SegmentHeader@@V?$allocator@UImportInfo@SegmentHeader@@@std@@@std@@@std@@@2@$0A@@std@@@std@@IAEXPAU?$_Tree_node@U?$pair@QBDV?$vector@UImportInfo@SegmentHeader@@V?$allocator@UImportInfo@SegmentHeader@@@std@@@std@@@std@@PAX@2@@Z ; std::_Tree<std::_Tmap_traits<char const *,std::vector<SegmentHeader::ImportInfo,std::allocator<SegmentHeader::ImportInfo> >,std::less<char const *>,std::allocator<std::pair<char const * const,std::vector<SegmentHeader::ImportInfo,std::allocator<SegmentHeader::ImportInfo> > > >,0> >::_Erase
PUBLIC	?_Buyheadnode@?$_Tree_comp_alloc@V?$_Tmap_traits@PBDV?$vector@UImportInfo@SegmentHeader@@V?$allocator@UImportInfo@SegmentHeader@@@std@@@std@@U?$less@PBD@2@V?$allocator@U?$pair@QBDV?$vector@UImportInfo@SegmentHeader@@V?$allocator@UImportInfo@SegmentHeader@@@std@@@std@@@std@@@2@$0A@@std@@@std@@QAEPAU?$_Tree_node@U?$pair@QBDV?$vector@UImportInfo@SegmentHeader@@V?$allocator@UImportInfo@SegmentHeader@@@std@@@std@@@std@@PAX@2@XZ ; std::_Tree_comp_alloc<std::_Tmap_traits<char const *,std::vector<SegmentHeader::ImportInfo,std::allocator<SegmentHeader::ImportInfo> >,std::less<char const *>,std::allocator<std::pair<char const * const,std::vector<SegmentHeader::ImportInfo,std::allocator<SegmentHeader::ImportInfo> > > >,0> >::_Buyheadnode
PUBLIC	?_Root@?$_Tree_val@U?$_Tree_simple_types@U?$pair@QBDV?$vector@UImportInfo@SegmentHeader@@V?$allocator@UImportInfo@SegmentHeader@@@std@@@std@@@std@@@std@@@std@@QBEAAPAU?$_Tree_node@U?$pair@QBDV?$vector@UImportInfo@SegmentHeader@@V?$allocator@UImportInfo@SegmentHeader@@@std@@@std@@@std@@PAX@2@XZ ; std::_Tree_val<std::_Tree_simple_types<std::pair<char const * const,std::vector<SegmentHeader::ImportInfo,std::allocator<SegmentHeader::ImportInfo> > > > >::_Root
PUBLIC	?_Rmost@?$_Tree_val@U?$_Tree_simple_types@U?$pair@QBDV?$vector@UImportInfo@SegmentHeader@@V?$allocator@UImportInfo@SegmentHeader@@@std@@@std@@@std@@@std@@@std@@QBEAAPAU?$_Tree_node@U?$pair@QBDV?$vector@UImportInfo@SegmentHeader@@V?$allocator@UImportInfo@SegmentHeader@@@std@@@std@@@std@@PAX@2@XZ ; std::_Tree_val<std::_Tree_simple_types<std::pair<char const * const,std::vector<SegmentHeader::ImportInfo,std::allocator<SegmentHeader::ImportInfo> > > > >::_Rmost
PUBLIC	?_Extract@?$_Tree_val@U?$_Tree_simple_types@U?$pair@QBDV?$vector@UImportInfo@SegmentHeader@@V?$allocator@UImportInfo@SegmentHeader@@@std@@@std@@@std@@@std@@@std@@QAEPAU?$_Tree_node@U?$pair@QBDV?$vector@UImportInfo@SegmentHeader@@V?$allocator@UImportInfo@SegmentHeader@@@std@@@std@@@std@@PAX@2@V?$_Tree_const_iterator@V?$_Tree_val@U?$_Tree_simple_types@U?$pair@QBDV?$vector@UImportInfo@SegmentHeader@@V?$allocator@UImportInfo@SegmentHeader@@@std@@@std@@@std@@@std@@@std@@@2@@Z ; std::_Tree_val<std::_Tree_simple_types<std::pair<char const * const,std::vector<SegmentHeader::ImportInfo,std::allocator<SegmentHeader::ImportInfo> > > > >::_Extract
PUBLIC	??0?$_Tree_const_iterator@V?$_Tree_val@U?$_Tree_simple_types@U?$pair@QBDV?$vector@UImportInfo@SegmentHeader@@V?$allocator@UImportInfo@SegmentHeader@@@std@@@std@@@std@@@std@@@std@@@std@@QAE@PAU?$_Tree_node@U?$pair@QBDV?$vector@UImportInfo@SegmentHeader@@V?$allocator@UImportInfo@SegmentHeader@@@std@@@std@@@std@@PAX@1@PBV?$_Tree_val@U?$_Tree_simple_types@U?$pair@QBDV?$vector@UImportInfo@SegmentHeader@@V?$allocator@UImportInfo@SegmentHeader@@@std@@@std@@@std@@@std@@@1@@Z ; std::_Tree_const_iterator<std::_Tree_val<std::_Tree_simple_types<std::pair<char const * const,std::vector<SegmentHeader::ImportInfo,std::allocator<SegmentHeader::ImportInfo> > > > > >::_Tree_const_iterator<std::_Tree_val<std::_Tree_simple_types<std::pair<char const * const,std::vector<SegmentHeader::ImportInfo,std::allocator<SegmentHeader::ImportInfo> > > > > >
PUBLIC	??E?$_Tree_const_iterator@V?$_Tree_val@U?$_Tree_simple_types@U?$pair@QBDV?$vector@UImportInfo@SegmentHeader@@V?$allocator@UImportInfo@SegmentHeader@@@std@@@std@@@std@@@std@@@std@@@std@@QAEAAV01@XZ ; std::_Tree_const_iterator<std::_Tree_val<std::_Tree_simple_types<std::pair<char const * const,std::vector<SegmentHeader::ImportInfo,std::allocator<SegmentHeader::ImportInfo> > > > > >::operator++
PUBLIC	?_Get_first@?$_Compressed_pair@V?$allocator@U?$_Tree_node@U?$pair@QBDV?$vector@UImportInfo@SegmentHeader@@V?$allocator@UImportInfo@SegmentHeader@@@std@@@std@@@std@@PAX@std@@@std@@V?$_Tree_val@U?$_Tree_simple_types@U?$pair@QBDV?$vector@UImportInfo@SegmentHeader@@V?$allocator@UImportInfo@SegmentHeader@@@std@@@std@@@std@@@std@@@2@$00@std@@QAEAAV?$allocator@U?$_Tree_node@U?$pair@QBDV?$vector@UImportInfo@SegmentHeader@@V?$allocator@UImportInfo@SegmentHeader@@@std@@@std@@@std@@PAX@std@@@2@XZ ; std::_Compressed_pair<std::allocator<std::_Tree_node<std::pair<char const * const,std::vector<SegmentHeader::ImportInfo,std::allocator<SegmentHeader::ImportInfo> > >,void *> >,std::_Tree_val<std::_Tree_simple_types<std::pair<char const * const,std::vector<SegmentHeader::ImportInfo,std::allocator<SegmentHeader::ImportInfo> > > > >,1>::_Get_first
PUBLIC	?__autoclassinit2@?$_Tree_const_iterator@V?$_Tree_val@U?$_Tree_simple_types@U?$pair@QBDV?$vector@UImportInfo@SegmentHeader@@V?$allocator@UImportInfo@SegmentHeader@@@std@@@std@@@std@@@std@@@std@@@std@@QAEXI@Z ; std::_Tree_const_iterator<std::_Tree_val<std::_Tree_simple_types<std::pair<char const * const,std::vector<SegmentHeader::ImportInfo,std::allocator<SegmentHeader::ImportInfo> > > > > >::__autoclassinit2
PUBLIC	?erase@?$_Tree@V?$_Tmap_traits@PBDV?$vector@UImportInfo@SegmentHeader@@V?$allocator@UImportInfo@SegmentHeader@@@std@@@std@@U?$less@PBD@2@V?$allocator@U?$pair@QBDV?$vector@UImportInfo@SegmentHeader@@V?$allocator@UImportInfo@SegmentHeader@@@std@@@std@@@std@@@2@$0A@@std@@@std@@QAE?AV?$_Tree_iterator@V?$_Tree_val@U?$_Tree_simple_types@U?$pair@QBDV?$vector@UImportInfo@SegmentHeader@@V?$allocator@UImportInfo@SegmentHeader@@@std@@@std@@@std@@@std@@@std@@@2@V?$_Tree_const_iterator@V?$_Tree_val@U?$_Tree_simple_types@U?$pair@QBDV?$vector@UImportInfo@SegmentHeader@@V?$allocator@UImportInfo@SegmentHeader@@@std@@@std@@@std@@@std@@@std@@@2@@Z ; std::_Tree<std::_Tmap_traits<char const *,std::vector<SegmentHeader::ImportInfo,std::allocator<SegmentHeader::ImportInfo> >,std::less<char const *>,std::allocator<std::pair<char const * const,std::vector<SegmentHeader::ImportInfo,std::allocator<SegmentHeader::ImportInfo> > > >,0> >::erase
PUBLIC	?clear@?$_Tree@V?$_Tmap_traits@PBDV?$vector@UImportInfo@SegmentHeader@@V?$allocator@UImportInfo@SegmentHeader@@@std@@@std@@U?$less@PBD@2@V?$allocator@U?$pair@QBDV?$vector@UImportInfo@SegmentHeader@@V?$allocator@UImportInfo@SegmentHeader@@@std@@@std@@@std@@@2@$0A@@std@@@std@@QAEXXZ ; std::_Tree<std::_Tmap_traits<char const *,std::vector<SegmentHeader::ImportInfo,std::allocator<SegmentHeader::ImportInfo> >,std::less<char const *>,std::allocator<std::pair<char const * const,std::vector<SegmentHeader::ImportInfo,std::allocator<SegmentHeader::ImportInfo> > > >,0> >::clear
PUBLIC	?_Construct@?$_Tree_comp_alloc@V?$_Tmap_traits@PBDV?$vector@UImportInfo@SegmentHeader@@V?$allocator@UImportInfo@SegmentHeader@@@std@@@std@@U?$less@PBD@2@V?$allocator@U?$pair@QBDV?$vector@UImportInfo@SegmentHeader@@V?$allocator@UImportInfo@SegmentHeader@@@std@@@std@@@std@@@2@$0A@@std@@@std@@QAEXXZ ; std::_Tree_comp_alloc<std::_Tmap_traits<char const *,std::vector<SegmentHeader::ImportInfo,std::allocator<SegmentHeader::ImportInfo> >,std::less<char const *>,std::allocator<std::pair<char const * const,std::vector<SegmentHeader::ImportInfo,std::allocator<SegmentHeader::ImportInfo> > > >,0> >::_Construct
PUBLIC	?_Getal@?$_Tree_comp_alloc@V?$_Tmap_traits@PBDV?$vector@UImportInfo@SegmentHeader@@V?$allocator@UImportInfo@SegmentHeader@@@std@@@std@@U?$less@PBD@2@V?$allocator@U?$pair@QBDV?$vector@UImportInfo@SegmentHeader@@V?$allocator@UImportInfo@SegmentHeader@@@std@@@std@@@std@@@2@$0A@@std@@@std@@QAEAAV?$allocator@U?$_Tree_node@U?$pair@QBDV?$vector@UImportInfo@SegmentHeader@@V?$allocator@UImportInfo@SegmentHeader@@@std@@@std@@@std@@PAX@std@@@2@XZ ; std::_Tree_comp_alloc<std::_Tmap_traits<char const *,std::vector<SegmentHeader::ImportInfo,std::allocator<SegmentHeader::ImportInfo> >,std::less<char const *>,std::allocator<std::pair<char const * const,std::vector<SegmentHeader::ImportInfo,std::allocator<SegmentHeader::ImportInfo> > > >,0> >::_Getal
PUBLIC	??0?$_Tree_iterator@V?$_Tree_val@U?$_Tree_simple_types@U?$pair@QBDV?$vector@UImportInfo@SegmentHeader@@V?$allocator@UImportInfo@SegmentHeader@@@std@@@std@@@std@@@std@@@std@@@std@@QAE@PAU?$_Tree_node@U?$pair@QBDV?$vector@UImportInfo@SegmentHeader@@V?$allocator@UImportInfo@SegmentHeader@@@std@@@std@@@std@@PAX@1@PBV?$_Tree_val@U?$_Tree_simple_types@U?$pair@QBDV?$vector@UImportInfo@SegmentHeader@@V?$allocator@UImportInfo@SegmentHeader@@@std@@@std@@@std@@@std@@@1@@Z ; std::_Tree_iterator<std::_Tree_val<std::_Tree_simple_types<std::pair<char const * const,std::vector<SegmentHeader::ImportInfo,std::allocator<SegmentHeader::ImportInfo> > > > > >::_Tree_iterator<std::_Tree_val<std::_Tree_simple_types<std::pair<char const * const,std::vector<SegmentHeader::ImportInfo,std::allocator<SegmentHeader::ImportInfo> > > > > >
PUBLIC	??E?$_Tree_const_iterator@V?$_Tree_val@U?$_Tree_simple_types@U?$pair@QBDV?$vector@UImportInfo@SegmentHeader@@V?$allocator@UImportInfo@SegmentHeader@@@std@@@std@@@std@@@std@@@std@@@std@@QAE?AV01@H@Z ; std::_Tree_const_iterator<std::_Tree_val<std::_Tree_simple_types<std::pair<char const * const,std::vector<SegmentHeader::ImportInfo,std::allocator<SegmentHeader::ImportInfo> > > > > >::operator++
PUBLIC	??8?$_Tree_const_iterator@V?$_Tree_val@U?$_Tree_simple_types@U?$pair@QBDV?$vector@UImportInfo@SegmentHeader@@V?$allocator@UImportInfo@SegmentHeader@@@std@@@std@@@std@@@std@@@std@@@std@@QBE_NABV01@@Z ; std::_Tree_const_iterator<std::_Tree_val<std::_Tree_simple_types<std::pair<char const * const,std::vector<SegmentHeader::ImportInfo,std::allocator<SegmentHeader::ImportInfo> > > > > >::operator==
PUBLIC	??9?$_Tree_const_iterator@V?$_Tree_val@U?$_Tree_simple_types@U?$pair@QBDV?$vector@UImportInfo@SegmentHeader@@V?$allocator@UImportInfo@SegmentHeader@@@std@@@std@@@std@@@std@@@std@@@std@@QBE_NABV01@@Z ; std::_Tree_const_iterator<std::_Tree_val<std::_Tree_simple_types<std::pair<char const * const,std::vector<SegmentHeader::ImportInfo,std::allocator<SegmentHeader::ImportInfo> > > > > >::operator!=
PUBLIC	?_Get_second@?$_Compressed_pair@V?$allocator@UImportInfo@SegmentHeader@@@std@@V?$_Vector_val@U?$_Simple_types@UImportInfo@SegmentHeader@@@std@@@2@$00@std@@QBEABV?$_Vector_val@U?$_Simple_types@UImportInfo@SegmentHeader@@@std@@@2@XZ ; std::_Compressed_pair<std::allocator<SegmentHeader::ImportInfo>,std::_Vector_val<std::_Simple_types<SegmentHeader::ImportInfo> >,1>::_Get_second
PUBLIC	?_Getstate@?$basic_stringbuf@DU?$char_traits@D@std@@V?$allocator@D@2@@std@@CAHH@Z ; std::basic_stringbuf<char,std::char_traits<char>,std::allocator<char> >::_Getstate
PUBLIC	??0?$basic_string@DU?$char_traits@D@std@@V?$allocator@D@2@@std@@QAE@ABV?$allocator@D@1@@Z ; std::basic_string<char,std::char_traits<char>,std::allocator<char> >::basic_string<char,std::char_traits<char>,std::allocator<char> >
PUBLIC	?_Get_second@?$_Compressed_pair@V?$allocator@U?$_Tree_node@U?$pair@$$CBW4ImportType@SegmentHeader@@K@std@@PAX@std@@@std@@V?$_Tree_val@U?$_Tree_simple_types@U?$pair@$$CBW4ImportType@SegmentHeader@@K@std@@@std@@@2@$00@std@@QBEABV?$_Tree_val@U?$_Tree_simple_types@U?$pair@$$CBW4ImportType@SegmentHeader@@K@std@@@std@@@2@XZ ; std::_Compressed_pair<std::allocator<std::_Tree_node<std::pair<enum SegmentHeader::ImportType const ,unsigned long>,void *> >,std::_Tree_val<std::_Tree_simple_types<std::pair<enum SegmentHeader::ImportType const ,unsigned long> > >,1>::_Get_second
PUBLIC	?_Get_second@?$_Compressed_pair@U?$less@W4ImportType@SegmentHeader@@@std@@V?$_Compressed_pair@V?$allocator@U?$_Tree_node@U?$pair@$$CBW4ImportType@SegmentHeader@@K@std@@PAX@std@@@std@@V?$_Tree_val@U?$_Tree_simple_types@U?$pair@$$CBW4ImportType@SegmentHeader@@K@std@@@std@@@2@$00@2@$00@std@@QBEABV?$_Compressed_pair@V?$allocator@U?$_Tree_node@U?$pair@$$CBW4ImportType@SegmentHeader@@K@std@@PAX@std@@@std@@V?$_Tree_val@U?$_Tree_simple_types@U?$pair@$$CBW4ImportType@SegmentHeader@@K@std@@@std@@@2@$00@2@XZ ; std::_Compressed_pair<std::less<enum SegmentHeader::ImportType>,std::_Compressed_pair<std::allocator<std::_Tree_node<std::pair<enum SegmentHeader::ImportType const ,unsigned long>,void *> >,std::_Tree_val<std::_Tree_simple_types<std::pair<enum SegmentHeader::ImportType const ,unsigned long> > >,1>,1>::_Get_second
PUBLIC	?begin@?$_Tree@V?$_Tmap_traits@PBDV?$vector@UImportInfo@SegmentHeader@@V?$allocator@UImportInfo@SegmentHeader@@@std@@@std@@U?$less@PBD@2@V?$allocator@U?$pair@QBDV?$vector@UImportInfo@SegmentHeader@@V?$allocator@UImportInfo@SegmentHeader@@@std@@@std@@@std@@@2@$0A@@std@@@std@@QAE?AV?$_Tree_iterator@V?$_Tree_val@U?$_Tree_simple_types@U?$pair@QBDV?$vector@UImportInfo@SegmentHeader@@V?$allocator@UImportInfo@SegmentHeader@@@std@@@std@@@std@@@std@@@std@@@2@XZ ; std::_Tree<std::_Tmap_traits<char const *,std::vector<SegmentHeader::ImportInfo,std::allocator<SegmentHeader::ImportInfo> >,std::less<char const *>,std::allocator<std::pair<char const * const,std::vector<SegmentHeader::ImportInfo,std::allocator<SegmentHeader::ImportInfo> > > >,0> >::begin
PUBLIC	?end@?$_Tree@V?$_Tmap_traits@PBDV?$vector@UImportInfo@SegmentHeader@@V?$allocator@UImportInfo@SegmentHeader@@@std@@@std@@U?$less@PBD@2@V?$allocator@U?$pair@QBDV?$vector@UImportInfo@SegmentHeader@@V?$allocator@UImportInfo@SegmentHeader@@@std@@@std@@@std@@@2@$0A@@std@@@std@@QAE?AV?$_Tree_iterator@V?$_Tree_val@U?$_Tree_simple_types@U?$pair@QBDV?$vector@UImportInfo@SegmentHeader@@V?$allocator@UImportInfo@SegmentHeader@@@std@@@std@@@std@@@std@@@std@@@2@XZ ; std::_Tree<std::_Tmap_traits<char const *,std::vector<SegmentHeader::ImportInfo,std::allocator<SegmentHeader::ImportInfo> >,std::less<char const *>,std::allocator<std::pair<char const * const,std::vector<SegmentHeader::ImportInfo,std::allocator<SegmentHeader::ImportInfo> > > >,0> >::end
PUBLIC	?erase@?$_Tree@V?$_Tmap_traits@PBDV?$vector@UImportInfo@SegmentHeader@@V?$allocator@UImportInfo@SegmentHeader@@@std@@@std@@U?$less@PBD@2@V?$allocator@U?$pair@QBDV?$vector@UImportInfo@SegmentHeader@@V?$allocator@UImportInfo@SegmentHeader@@@std@@@std@@@std@@@2@$0A@@std@@@std@@QAE?AV?$_Tree_iterator@V?$_Tree_val@U?$_Tree_simple_types@U?$pair@QBDV?$vector@UImportInfo@SegmentHeader@@V?$allocator@UImportInfo@SegmentHeader@@@std@@@std@@@std@@@std@@@std@@@2@V?$_Tree_const_iterator@V?$_Tree_val@U?$_Tree_simple_types@U?$pair@QBDV?$vector@UImportInfo@SegmentHeader@@V?$allocator@UImportInfo@SegmentHeader@@@std@@@std@@@std@@@std@@@std@@@2@0@Z ; std::_Tree<std::_Tmap_traits<char const *,std::vector<SegmentHeader::ImportInfo,std::allocator<SegmentHeader::ImportInfo> >,std::less<char const *>,std::allocator<std::pair<char const * const,std::vector<SegmentHeader::ImportInfo,std::allocator<SegmentHeader::ImportInfo> > > >,0> >::erase
PUBLIC	?_Freeheadnode@?$_Tree_comp_alloc@V?$_Tmap_traits@PBDV?$vector@UImportInfo@SegmentHeader@@V?$allocator@UImportInfo@SegmentHeader@@@std@@@std@@U?$less@PBD@2@V?$allocator@U?$pair@QBDV?$vector@UImportInfo@SegmentHeader@@V?$allocator@UImportInfo@SegmentHeader@@@std@@@std@@@std@@@2@$0A@@std@@@std@@QAEXPAU?$_Tree_node@U?$pair@QBDV?$vector@UImportInfo@SegmentHeader@@V?$allocator@UImportInfo@SegmentHeader@@@std@@@std@@@std@@PAX@2@@Z ; std::_Tree_comp_alloc<std::_Tmap_traits<char const *,std::vector<SegmentHeader::ImportInfo,std::allocator<SegmentHeader::ImportInfo> >,std::less<char const *>,std::allocator<std::pair<char const * const,std::vector<SegmentHeader::ImportInfo,std::allocator<SegmentHeader::ImportInfo> > > >,0> >::_Freeheadnode
PUBLIC	?_Min@?$_Tree_val@U?$_Tree_simple_types@U?$pair@QBDV?$vector@UImportInfo@SegmentHeader@@V?$allocator@UImportInfo@SegmentHeader@@@std@@@std@@@std@@@std@@@std@@SAPAU?$_Tree_node@U?$pair@QBDV?$vector@UImportInfo@SegmentHeader@@V?$allocator@UImportInfo@SegmentHeader@@@std@@@std@@@std@@PAX@2@PAU32@@Z ; std::_Tree_val<std::_Tree_simple_types<std::pair<char const * const,std::vector<SegmentHeader::ImportInfo,std::allocator<SegmentHeader::ImportInfo> > > > >::_Min
PUBLIC	??0?$_Tree_unchecked_const_iterator@V?$_Tree_val@U?$_Tree_simple_types@U?$pair@QBDV?$vector@UImportInfo@SegmentHeader@@V?$allocator@UImportInfo@SegmentHeader@@@std@@@std@@@std@@@std@@@std@@U_Iterator_base0@2@@std@@QAE@PAU?$_Tree_node@U?$pair@QBDV?$vector@UImportInfo@SegmentHeader@@V?$allocator@UImportInfo@SegmentHeader@@@std@@@std@@@std@@PAX@1@PBV?$_Tree_val@U?$_Tree_simple_types@U?$pair@QBDV?$vector@UImportInfo@SegmentHeader@@V?$allocator@UImportInfo@SegmentHeader@@@std@@@std@@@std@@@std@@@1@@Z ; std::_Tree_unchecked_const_iterator<std::_Tree_val<std::_Tree_simple_types<std::pair<char const * const,std::vector<SegmentHeader::ImportInfo,std::allocator<SegmentHeader::ImportInfo> > > > >,std::_Iterator_base0>::_Tree_unchecked_const_iterator<std::_Tree_val<std::_Tree_simple_types<std::pair<char const * const,std::vector<SegmentHeader::ImportInfo,std::allocator<SegmentHeader::ImportInfo> > > > >,std::_Iterator_base0>
PUBLIC	?_Get_first@?$_Compressed_pair@V?$allocator@U?$_Tree_node@U?$pair@QBDV?$vector@UImportInfo@SegmentHeader@@V?$allocator@UImportInfo@SegmentHeader@@@std@@@std@@@std@@PAX@std@@@std@@V?$_Tree_val@U?$_Tree_simple_types@U?$pair@QBDV?$vector@UImportInfo@SegmentHeader@@V?$allocator@UImportInfo@SegmentHeader@@@std@@@std@@@std@@@std@@@2@$00@std@@QBEABV?$allocator@U?$_Tree_node@U?$pair@QBDV?$vector@UImportInfo@SegmentHeader@@V?$allocator@UImportInfo@SegmentHeader@@@std@@@std@@@std@@PAX@std@@@2@XZ ; std::_Compressed_pair<std::allocator<std::_Tree_node<std::pair<char const * const,std::vector<SegmentHeader::ImportInfo,std::allocator<SegmentHeader::ImportInfo> > >,void *> >,std::_Tree_val<std::_Tree_simple_types<std::pair<char const * const,std::vector<SegmentHeader::ImportInfo,std::allocator<SegmentHeader::ImportInfo> > > > >,1>::_Get_first
PUBLIC	?_Get_second@?$_Compressed_pair@V?$allocator@U?$_Tree_node@U?$pair@QBDV?$vector@UImportInfo@SegmentHeader@@V?$allocator@UImportInfo@SegmentHeader@@@std@@@std@@@std@@PAX@std@@@std@@V?$_Tree_val@U?$_Tree_simple_types@U?$pair@QBDV?$vector@UImportInfo@SegmentHeader@@V?$allocator@UImportInfo@SegmentHeader@@@std@@@std@@@std@@@std@@@2@$00@std@@QAEAAV?$_Tree_val@U?$_Tree_simple_types@U?$pair@QBDV?$vector@UImportInfo@SegmentHeader@@V?$allocator@UImportInfo@SegmentHeader@@@std@@@std@@@std@@@std@@@2@XZ ; std::_Compressed_pair<std::allocator<std::_Tree_node<std::pair<char const * const,std::vector<SegmentHeader::ImportInfo,std::allocator<SegmentHeader::ImportInfo> > >,void *> >,std::_Tree_val<std::_Tree_simple_types<std::pair<char const * const,std::vector<SegmentHeader::ImportInfo,std::allocator<SegmentHeader::ImportInfo> > > > >,1>::_Get_second
PUBLIC	?_Get_second@?$_Compressed_pair@U?$less@PBD@std@@V?$_Compressed_pair@V?$allocator@U?$_Tree_node@U?$pair@QBDV?$vector@UImportInfo@SegmentHeader@@V?$allocator@UImportInfo@SegmentHeader@@@std@@@std@@@std@@PAX@std@@@std@@V?$_Tree_val@U?$_Tree_simple_types@U?$pair@QBDV?$vector@UImportInfo@SegmentHeader@@V?$allocator@UImportInfo@SegmentHeader@@@std@@@std@@@std@@@std@@@2@$00@2@$00@std@@QAEAAV?$_Compressed_pair@V?$allocator@U?$_Tree_node@U?$pair@QBDV?$vector@UImportInfo@SegmentHeader@@V?$allocator@UImportInfo@SegmentHeader@@@std@@@std@@@std@@PAX@std@@@std@@V?$_Tree_val@U?$_Tree_simple_types@U?$pair@QBDV?$vector@UImportInfo@SegmentHeader@@V?$allocator@UImportInfo@SegmentHeader@@@std@@@std@@@std@@@std@@@2@$00@2@XZ ; std::_Compressed_pair<std::less<char const *>,std::_Compressed_pair<std::allocator<std::_Tree_node<std::pair<char const * const,std::vector<SegmentHeader::ImportInfo,std::allocator<SegmentHeader::ImportInfo> > >,void *> >,std::_Tree_val<std::_Tree_simple_types<std::pair<char const * const,std::vector<SegmentHeader::ImportInfo,std::allocator<SegmentHeader::ImportInfo> > > > >,1>,1>::_Get_second
PUBLIC	?_Get_second@?$_Compressed_pair@U?$less@PBD@std@@V?$_Compressed_pair@V?$allocator@U?$_Tree_node@U?$pair@QBDV?$vector@UImportInfo@SegmentHeader@@V?$allocator@UImportInfo@SegmentHeader@@@std@@@std@@@std@@PAX@std@@@std@@V?$_Tree_val@U?$_Tree_simple_types@U?$pair@QBDV?$vector@UImportInfo@SegmentHeader@@V?$allocator@UImportInfo@SegmentHeader@@@std@@@std@@@std@@@std@@@2@$00@2@$00@std@@QBEABV?$_Compressed_pair@V?$allocator@U?$_Tree_node@U?$pair@QBDV?$vector@UImportInfo@SegmentHeader@@V?$allocator@UImportInfo@SegmentHeader@@@std@@@std@@@std@@PAX@std@@@std@@V?$_Tree_val@U?$_Tree_simple_types@U?$pair@QBDV?$vector@UImportInfo@SegmentHeader@@V?$allocator@UImportInfo@SegmentHeader@@@std@@@std@@@std@@@std@@@2@$00@2@XZ ; std::_Compressed_pair<std::less<char const *>,std::_Compressed_pair<std::allocator<std::_Tree_node<std::pair<char const * const,std::vector<SegmentHeader::ImportInfo,std::allocator<SegmentHeader::ImportInfo> > >,void *> >,std::_Tree_val<std::_Tree_simple_types<std::pair<char const * const,std::vector<SegmentHeader::ImportInfo,std::allocator<SegmentHeader::ImportInfo> > > > >,1>,1>::_Get_second
PUBLIC	?_Get_data@?$_Vector_alloc@U?$_Vec_base_types@UImportInfo@SegmentHeader@@V?$allocator@UImportInfo@SegmentHeader@@@std@@@std@@@std@@QBEABV?$_Vector_val@U?$_Simple_types@UImportInfo@SegmentHeader@@@std@@@2@XZ ; std::_Vector_alloc<std::_Vec_base_types<SegmentHeader::ImportInfo,std::allocator<SegmentHeader::ImportInfo> > >::_Get_data
PUBLIC	??0?$basic_stringbuf@DU?$char_traits@D@std@@V?$allocator@D@2@@std@@QAE@H@Z ; std::basic_stringbuf<char,std::char_traits<char>,std::allocator<char> >::basic_stringbuf<char,std::char_traits<char>,std::allocator<char> >
PUBLIC	?str@?$basic_stringbuf@DU?$char_traits@D@std@@V?$allocator@D@2@@std@@QBE?AV?$basic_string@DU?$char_traits@D@std@@V?$allocator@D@2@@2@XZ ; std::basic_stringbuf<char,std::char_traits<char>,std::allocator<char> >::str
PUBLIC	?_Tidy@?$basic_stringbuf@DU?$char_traits@D@std@@V?$allocator@D@2@@std@@IAEXXZ ; std::basic_stringbuf<char,std::char_traits<char>,std::allocator<char> >::_Tidy
PUBLIC	?_Buy@?$vector@KV?$allocator@K@std@@@std@@AAE_NI@Z ; std::vector<unsigned long,std::allocator<unsigned long> >::_Buy
PUBLIC	?_Get_data@?$_Tree_comp_alloc@V?$_Tmap_traits@W4ImportType@SegmentHeader@@KU?$less@W4ImportType@SegmentHeader@@@std@@V?$allocator@U?$pair@$$CBW4ImportType@SegmentHeader@@K@std@@@4@$00@std@@@std@@QBEABV?$_Tree_val@U?$_Tree_simple_types@U?$pair@$$CBW4ImportType@SegmentHeader@@K@std@@@std@@@2@XZ ; std::_Tree_comp_alloc<std::_Tmap_traits<enum SegmentHeader::ImportType,unsigned long,std::less<enum SegmentHeader::ImportType>,std::allocator<std::pair<enum SegmentHeader::ImportType const ,unsigned long> >,1> >::_Get_data
PUBLIC	?_Min@?$_Tree_val@U?$_Tree_simple_types@U?$pair@$$CBW4ImportType@SegmentHeader@@K@std@@@std@@@std@@SAPAU?$_Tree_node@U?$pair@$$CBW4ImportType@SegmentHeader@@K@std@@PAX@2@PAU32@@Z ; std::_Tree_val<std::_Tree_simple_types<std::pair<enum SegmentHeader::ImportType const ,unsigned long> > >::_Min
PUBLIC	?_Lmost@?$_Tree_val@U?$_Tree_simple_types@U?$pair@$$CBW4ImportType@SegmentHeader@@K@std@@@std@@@std@@QBEAAPAU?$_Tree_node@U?$pair@$$CBW4ImportType@SegmentHeader@@K@std@@PAX@2@XZ ; std::_Tree_val<std::_Tree_simple_types<std::pair<enum SegmentHeader::ImportType const ,unsigned long> > >::_Lmost
PUBLIC	??0?$_Tree_unchecked_const_iterator@V?$_Tree_val@U?$_Tree_simple_types@U?$pair@$$CBW4ImportType@SegmentHeader@@K@std@@@std@@@std@@U_Iterator_base0@2@@std@@QAE@PAU?$_Tree_node@U?$pair@$$CBW4ImportType@SegmentHeader@@K@std@@PAX@1@PBV?$_Tree_val@U?$_Tree_simple_types@U?$pair@$$CBW4ImportType@SegmentHeader@@K@std@@@std@@@1@@Z ; std::_Tree_unchecked_const_iterator<std::_Tree_val<std::_Tree_simple_types<std::pair<enum SegmentHeader::ImportType const ,unsigned long> > >,std::_Iterator_base0>::_Tree_unchecked_const_iterator<std::_Tree_val<std::_Tree_simple_types<std::pair<enum SegmentHeader::ImportType const ,unsigned long> > >,std::_Iterator_base0>
PUBLIC	??8?$_Tree_unchecked_const_iterator@V?$_Tree_val@U?$_Tree_simple_types@U?$pair@$$CBW4ImportType@SegmentHeader@@K@std@@@std@@@std@@U_Iterator_base0@2@@std@@QBE_NABV01@@Z ; std::_Tree_unchecked_const_iterator<std::_Tree_val<std::_Tree_simple_types<std::pair<enum SegmentHeader::ImportType const ,unsigned long> > >,std::_Iterator_base0>::operator==
PUBLIC	?_Tidy@?$_Tree@V?$_Tmap_traits@PBDV?$vector@UImportInfo@SegmentHeader@@V?$allocator@UImportInfo@SegmentHeader@@@std@@@std@@U?$less@PBD@2@V?$allocator@U?$pair@QBDV?$vector@UImportInfo@SegmentHeader@@V?$allocator@UImportInfo@SegmentHeader@@@std@@@std@@@std@@@2@$0A@@std@@@std@@IAEXXZ ; std::_Tree<std::_Tmap_traits<char const *,std::vector<SegmentHeader::ImportInfo,std::allocator<SegmentHeader::ImportInfo> >,std::less<char const *>,std::allocator<std::pair<char const * const,std::vector<SegmentHeader::ImportInfo,std::allocator<SegmentHeader::ImportInfo> > > >,0> >::_Tidy
PUBLIC	??1?$_Tree_comp_alloc@V?$_Tmap_traits@PBDV?$vector@UImportInfo@SegmentHeader@@V?$allocator@UImportInfo@SegmentHeader@@@std@@@std@@U?$less@PBD@2@V?$allocator@U?$pair@QBDV?$vector@UImportInfo@SegmentHeader@@V?$allocator@UImportInfo@SegmentHeader@@@std@@@std@@@std@@@2@$0A@@std@@@std@@QAE@XZ ; std::_Tree_comp_alloc<std::_Tmap_traits<char const *,std::vector<SegmentHeader::ImportInfo,std::allocator<SegmentHeader::ImportInfo> >,std::less<char const *>,std::allocator<std::pair<char const * const,std::vector<SegmentHeader::ImportInfo,std::allocator<SegmentHeader::ImportInfo> > > >,0> >::~_Tree_comp_alloc<std::_Tmap_traits<char const *,std::vector<SegmentHeader::ImportInfo,std::allocator<SegmentHeader::ImportInfo> >,std::less<char const *>,std::allocator<std::pair<char const * const,std::vector<SegmentHeader::ImportInfo,std::allocator<SegmentHeader::ImportInfo> > > >,0> >
PUBLIC	?_Getal@?$_Tree_comp_alloc@V?$_Tmap_traits@PBDV?$vector@UImportInfo@SegmentHeader@@V?$allocator@UImportInfo@SegmentHeader@@@std@@@std@@U?$less@PBD@2@V?$allocator@U?$pair@QBDV?$vector@UImportInfo@SegmentHeader@@V?$allocator@UImportInfo@SegmentHeader@@@std@@@std@@@std@@@2@$0A@@std@@@std@@QBEABV?$allocator@U?$_Tree_node@U?$pair@QBDV?$vector@UImportInfo@SegmentHeader@@V?$allocator@UImportInfo@SegmentHeader@@@std@@@std@@@std@@PAX@std@@@2@XZ ; std::_Tree_comp_alloc<std::_Tmap_traits<char const *,std::vector<SegmentHeader::ImportInfo,std::allocator<SegmentHeader::ImportInfo> >,std::less<char const *>,std::allocator<std::pair<char const * const,std::vector<SegmentHeader::ImportInfo,std::allocator<SegmentHeader::ImportInfo> > > >,0> >::_Getal
PUBLIC	?_Get_data@?$_Tree_comp_alloc@V?$_Tmap_traits@PBDV?$vector@UImportInfo@SegmentHeader@@V?$allocator@UImportInfo@SegmentHeader@@@std@@@std@@U?$less@PBD@2@V?$allocator@U?$pair@QBDV?$vector@UImportInfo@SegmentHeader@@V?$allocator@UImportInfo@SegmentHeader@@@std@@@std@@@std@@@2@$0A@@std@@@std@@QAEAAV?$_Tree_val@U?$_Tree_simple_types@U?$pair@QBDV?$vector@UImportInfo@SegmentHeader@@V?$allocator@UImportInfo@SegmentHeader@@@std@@@std@@@std@@@std@@@2@XZ ; std::_Tree_comp_alloc<std::_Tmap_traits<char const *,std::vector<SegmentHeader::ImportInfo,std::allocator<SegmentHeader::ImportInfo> >,std::less<char const *>,std::allocator<std::pair<char const * const,std::vector<SegmentHeader::ImportInfo,std::allocator<SegmentHeader::ImportInfo> > > >,0> >::_Get_data
PUBLIC	?select_on_container_copy_construction@?$_Default_allocator_traits@V?$allocator@U?$_Tree_node@U?$pair@QBDV?$vector@UImportInfo@SegmentHeader@@V?$allocator@UImportInfo@SegmentHeader@@@std@@@std@@@std@@PAX@std@@@std@@@std@@SA?AV?$allocator@U?$_Tree_node@U?$pair@QBDV?$vector@UImportInfo@SegmentHeader@@V?$allocator@UImportInfo@SegmentHeader@@@std@@@std@@@std@@PAX@std@@@2@ABV32@@Z ; std::_Default_allocator_traits<std::allocator<std::_Tree_node<std::pair<char const * const,std::vector<SegmentHeader::ImportInfo,std::allocator<SegmentHeader::ImportInfo> > >,void *> > >::select_on_container_copy_construction
PUBLIC	?_Lmost@?$_Tree_val@U?$_Tree_simple_types@U?$pair@QBDV?$vector@UImportInfo@SegmentHeader@@V?$allocator@UImportInfo@SegmentHeader@@@std@@@std@@@std@@@std@@@std@@QBEAAPAU?$_Tree_node@U?$pair@QBDV?$vector@UImportInfo@SegmentHeader@@V?$allocator@UImportInfo@SegmentHeader@@@std@@@std@@@std@@PAX@2@XZ ; std::_Tree_val<std::_Tree_simple_types<std::pair<char const * const,std::vector<SegmentHeader::ImportInfo,std::allocator<SegmentHeader::ImportInfo> > > > >::_Lmost
PUBLIC	??0?$_Tree_unchecked_iterator@V?$_Tree_val@U?$_Tree_simple_types@U?$pair@QBDV?$vector@UImportInfo@SegmentHeader@@V?$allocator@UImportInfo@SegmentHeader@@@std@@@std@@@std@@@std@@@std@@@std@@QAE@PAU?$_Tree_node@U?$pair@QBDV?$vector@UImportInfo@SegmentHeader@@V?$allocator@UImportInfo@SegmentHeader@@@std@@@std@@@std@@PAX@1@PBV?$_Tree_val@U?$_Tree_simple_types@U?$pair@QBDV?$vector@UImportInfo@SegmentHeader@@V?$allocator@UImportInfo@SegmentHeader@@@std@@@std@@@std@@@std@@@1@@Z ; std::_Tree_unchecked_iterator<std::_Tree_val<std::_Tree_simple_types<std::pair<char const * const,std::vector<SegmentHeader::ImportInfo,std::allocator<SegmentHeader::ImportInfo> > > > > >::_Tree_unchecked_iterator<std::_Tree_val<std::_Tree_simple_types<std::pair<char const * const,std::vector<SegmentHeader::ImportInfo,std::allocator<SegmentHeader::ImportInfo> > > > > >
PUBLIC	??D?$_Tree_unchecked_const_iterator@V?$_Tree_val@U?$_Tree_simple_types@U?$pair@QBDV?$vector@UImportInfo@SegmentHeader@@V?$allocator@UImportInfo@SegmentHeader@@@std@@@std@@@std@@@std@@@std@@U_Iterator_base0@2@@std@@QBEABU?$pair@QBDV?$vector@UImportInfo@SegmentHeader@@V?$allocator@UImportInfo@SegmentHeader@@@std@@@std@@@1@XZ ; std::_Tree_unchecked_const_iterator<std::_Tree_val<std::_Tree_simple_types<std::pair<char const * const,std::vector<SegmentHeader::ImportInfo,std::allocator<SegmentHeader::ImportInfo> > > > >,std::_Iterator_base0>::operator*
PUBLIC	??E?$_Tree_unchecked_const_iterator@V?$_Tree_val@U?$_Tree_simple_types@U?$pair@QBDV?$vector@UImportInfo@SegmentHeader@@V?$allocator@UImportInfo@SegmentHeader@@@std@@@std@@@std@@@std@@@std@@U_Iterator_base0@2@@std@@QAEAAV01@XZ ; std::_Tree_unchecked_const_iterator<std::_Tree_val<std::_Tree_simple_types<std::pair<char const * const,std::vector<SegmentHeader::ImportInfo,std::allocator<SegmentHeader::ImportInfo> > > > >,std::_Iterator_base0>::operator++
PUBLIC	??8?$_Tree_unchecked_const_iterator@V?$_Tree_val@U?$_Tree_simple_types@U?$pair@QBDV?$vector@UImportInfo@SegmentHeader@@V?$allocator@UImportInfo@SegmentHeader@@@std@@@std@@@std@@@std@@@std@@U_Iterator_base0@2@@std@@QBE_NABV01@@Z ; std::_Tree_unchecked_const_iterator<std::_Tree_val<std::_Tree_simple_types<std::pair<char const * const,std::vector<SegmentHeader::ImportInfo,std::allocator<SegmentHeader::ImportInfo> > > > >,std::_Iterator_base0>::operator==
PUBLIC	?select_on_container_copy_construction@?$_Default_allocator_traits@V?$allocator@K@std@@@std@@SA?AV?$allocator@K@2@ABV32@@Z ; std::_Default_allocator_traits<std::allocator<unsigned long> >::select_on_container_copy_construction
PUBLIC	?_Myfirst@?$_Vector_alloc@U?$_Vec_base_types@UImportInfo@SegmentHeader@@V?$allocator@UImportInfo@SegmentHeader@@@std@@@std@@@std@@QBEABQAUImportInfo@SegmentHeader@@XZ ; std::_Vector_alloc<std::_Vec_base_types<SegmentHeader::ImportInfo,std::allocator<SegmentHeader::ImportInfo> > >::_Myfirst
PUBLIC	?_Mylast@?$_Vector_alloc@U?$_Vec_base_types@UImportInfo@SegmentHeader@@V?$allocator@UImportInfo@SegmentHeader@@@std@@@std@@@std@@QBEABQAUImportInfo@SegmentHeader@@XZ ; std::_Vector_alloc<std::_Vec_base_types<SegmentHeader::ImportInfo,std::allocator<SegmentHeader::ImportInfo> > >::_Mylast
PUBLIC	?pointer_to@?$pointer_traits@PAD@std@@SAPADAAD@Z ; std::pointer_traits<char *>::pointer_to
PUBLIC	??_G?$basic_stringbuf@DU?$char_traits@D@std@@V?$allocator@D@2@@std@@UAEPAXI@Z ; std::basic_stringbuf<char,std::char_traits<char>,std::allocator<char> >::`scalar deleting destructor'
PUBLIC	??_G?$basic_ostringstream@DU?$char_traits@D@std@@V?$allocator@D@2@@std@@UAEPAXI@Z ; std::basic_ostringstream<char,std::char_traits<char>,std::allocator<char> >::`scalar deleting destructor'
PUBLIC	??1?$basic_stringbuf@DU?$char_traits@D@std@@V?$allocator@D@2@@std@@UAE@XZ ; std::basic_stringbuf<char,std::char_traits<char>,std::allocator<char> >::~basic_stringbuf<char,std::char_traits<char>,std::allocator<char> >
PUBLIC	?overflow@?$basic_stringbuf@DU?$char_traits@D@std@@V?$allocator@D@2@@std@@MAEHH@Z ; std::basic_stringbuf<char,std::char_traits<char>,std::allocator<char> >::overflow
PUBLIC	?pbackfail@?$basic_stringbuf@DU?$char_traits@D@std@@V?$allocator@D@2@@std@@MAEHH@Z ; std::basic_stringbuf<char,std::char_traits<char>,std::allocator<char> >::pbackfail
PUBLIC	?underflow@?$basic_stringbuf@DU?$char_traits@D@std@@V?$allocator@D@2@@std@@MAEHXZ ; std::basic_stringbuf<char,std::char_traits<char>,std::allocator<char> >::underflow
PUBLIC	?seekoff@?$basic_stringbuf@DU?$char_traits@D@std@@V?$allocator@D@2@@std@@MAE?AV?$fpos@U_Mbstatet@@@2@_JHH@Z ; std::basic_stringbuf<char,std::char_traits<char>,std::allocator<char> >::seekoff
PUBLIC	?seekpos@?$basic_stringbuf@DU?$char_traits@D@std@@V?$allocator@D@2@@std@@MAE?AV?$fpos@U_Mbstatet@@@2@V32@H@Z ; std::basic_stringbuf<char,std::char_traits<char>,std::allocator<char> >::seekpos
PUBLIC	??0?$basic_ostringstream@DU?$char_traits@D@std@@V?$allocator@D@2@@std@@QAE@H@Z ; std::basic_ostringstream<char,std::char_traits<char>,std::allocator<char> >::basic_ostringstream<char,std::char_traits<char>,std::allocator<char> >
PUBLIC	??1?$basic_ostringstream@DU?$char_traits@D@std@@V?$allocator@D@2@@std@@UAE@XZ ; std::basic_ostringstream<char,std::char_traits<char>,std::allocator<char> >::~basic_ostringstream<char,std::char_traits<char>,std::allocator<char> >
PUBLIC	?str@?$basic_ostringstream@DU?$char_traits@D@std@@V?$allocator@D@2@@std@@QBE?AV?$basic_string@DU?$char_traits@D@std@@V?$allocator@D@2@@2@XZ ; std::basic_ostringstream<char,std::char_traits<char>,std::allocator<char> >::str
PUBLIC	??0?$vector@KV?$allocator@K@std@@@std@@QAE@ABV01@@Z ; std::vector<unsigned long,std::allocator<unsigned long> >::vector<unsigned long,std::allocator<unsigned long> >
PUBLIC	?_Unchecked_begin@?$vector@KV?$allocator@K@std@@@std@@QAEPAKXZ ; std::vector<unsigned long,std::allocator<unsigned long> >::_Unchecked_begin
PUBLIC	?_Unchecked_end@?$vector@KV?$allocator@K@std@@@std@@QAEPAKXZ ; std::vector<unsigned long,std::allocator<unsigned long> >::_Unchecked_end
PUBLIC	?_Unchecked_begin@?$_Tree@V?$_Tmap_traits@W4ImportType@SegmentHeader@@KU?$less@W4ImportType@SegmentHeader@@@std@@V?$allocator@U?$pair@$$CBW4ImportType@SegmentHeader@@K@std@@@4@$00@std@@@std@@QBE?AV?$_Tree_unchecked_const_iterator@V?$_Tree_val@U?$_Tree_simple_types@U?$pair@$$CBW4ImportType@SegmentHeader@@K@std@@@std@@@std@@U_Iterator_base0@2@@2@XZ ; std::_Tree<std::_Tmap_traits<enum SegmentHeader::ImportType,unsigned long,std::less<enum SegmentHeader::ImportType>,std::allocator<std::pair<enum SegmentHeader::ImportType const ,unsigned long> >,1> >::_Unchecked_begin
PUBLIC	?_Unchecked_end@?$_Tree@V?$_Tmap_traits@W4ImportType@SegmentHeader@@KU?$less@W4ImportType@SegmentHeader@@@std@@V?$allocator@U?$pair@$$CBW4ImportType@SegmentHeader@@K@std@@@4@$00@std@@@std@@QBE?AV?$_Tree_unchecked_const_iterator@V?$_Tree_val@U?$_Tree_simple_types@U?$pair@$$CBW4ImportType@SegmentHeader@@K@std@@@std@@@std@@U_Iterator_base0@2@@2@XZ ; std::_Tree<std::_Tmap_traits<enum SegmentHeader::ImportType,unsigned long,std::less<enum SegmentHeader::ImportType>,std::allocator<std::pair<enum SegmentHeader::ImportType const ,unsigned long> >,1> >::_Unchecked_end
PUBLIC	??D?$_Tree_unchecked_const_iterator@V?$_Tree_val@U?$_Tree_simple_types@U?$pair@$$CBW4ImportType@SegmentHeader@@K@std@@@std@@@std@@U_Iterator_base0@2@@std@@QBEABU?$pair@$$CBW4ImportType@SegmentHeader@@K@1@XZ ; std::_Tree_unchecked_const_iterator<std::_Tree_val<std::_Tree_simple_types<std::pair<enum SegmentHeader::ImportType const ,unsigned long> > >,std::_Iterator_base0>::operator*
PUBLIC	??E?$_Tree_unchecked_const_iterator@V?$_Tree_val@U?$_Tree_simple_types@U?$pair@$$CBW4ImportType@SegmentHeader@@K@std@@@std@@@std@@U_Iterator_base0@2@@std@@QAEAAV01@XZ ; std::_Tree_unchecked_const_iterator<std::_Tree_val<std::_Tree_simple_types<std::pair<enum SegmentHeader::ImportType const ,unsigned long> > >,std::_Iterator_base0>::operator++
PUBLIC	??9?$_Tree_unchecked_const_iterator@V?$_Tree_val@U?$_Tree_simple_types@U?$pair@$$CBW4ImportType@SegmentHeader@@K@std@@@std@@@std@@U_Iterator_base0@2@@std@@QBE_NABV01@@Z ; std::_Tree_unchecked_const_iterator<std::_Tree_val<std::_Tree_simple_types<std::pair<enum SegmentHeader::ImportType const ,unsigned long> > >,std::_Iterator_base0>::operator!=
PUBLIC	?_Unchecked_begin@?$vector@UImportInfo@SegmentHeader@@V?$allocator@UImportInfo@SegmentHeader@@@std@@@std@@QBEPBUImportInfo@SegmentHeader@@XZ ; std::vector<SegmentHeader::ImportInfo,std::allocator<SegmentHeader::ImportInfo> >::_Unchecked_begin
PUBLIC	?_Unchecked_end@?$vector@UImportInfo@SegmentHeader@@V?$allocator@UImportInfo@SegmentHeader@@@std@@@std@@QBEPBUImportInfo@SegmentHeader@@XZ ; std::vector<SegmentHeader::ImportInfo,std::allocator<SegmentHeader::ImportInfo> >::_Unchecked_end
PUBLIC	??0?$map@PBDV?$vector@UImportInfo@SegmentHeader@@V?$allocator@UImportInfo@SegmentHeader@@@std@@@std@@U?$less@PBD@2@V?$allocator@U?$pair@QBDV?$vector@UImportInfo@SegmentHeader@@V?$allocator@UImportInfo@SegmentHeader@@@std@@@std@@@std@@@2@@std@@QAE@ABV01@@Z ; std::map<char const *,std::vector<SegmentHeader::ImportInfo,std::allocator<SegmentHeader::ImportInfo> >,std::less<char const *>,std::allocator<std::pair<char const * const,std::vector<SegmentHeader::ImportInfo,std::allocator<SegmentHeader::ImportInfo> > > > >::map<char const *,std::vector<SegmentHeader::ImportInfo,std::allocator<SegmentHeader::ImportInfo> >,std::less<char const *>,std::allocator<std::pair<char const * const,std::vector<SegmentHeader::ImportInfo,std::allocator<SegmentHeader::ImportInfo> > > > >
PUBLIC	??1?$_Tree@V?$_Tmap_traits@PBDV?$vector@UImportInfo@SegmentHeader@@V?$allocator@UImportInfo@SegmentHeader@@@std@@@std@@U?$less@PBD@2@V?$allocator@U?$pair@QBDV?$vector@UImportInfo@SegmentHeader@@V?$allocator@UImportInfo@SegmentHeader@@@std@@@std@@@std@@@2@$0A@@std@@@std@@QAE@XZ ; std::_Tree<std::_Tmap_traits<char const *,std::vector<SegmentHeader::ImportInfo,std::allocator<SegmentHeader::ImportInfo> >,std::less<char const *>,std::allocator<std::pair<char const * const,std::vector<SegmentHeader::ImportInfo,std::allocator<SegmentHeader::ImportInfo> > > >,0> >::~_Tree<std::_Tmap_traits<char const *,std::vector<SegmentHeader::ImportInfo,std::allocator<SegmentHeader::ImportInfo> >,std::less<char const *>,std::allocator<std::pair<char const * const,std::vector<SegmentHeader::ImportInfo,std::allocator<SegmentHeader::ImportInfo> > > >,0> >
PUBLIC	?_Unchecked_begin@?$_Tree@V?$_Tmap_traits@PBDV?$vector@UImportInfo@SegmentHeader@@V?$allocator@UImportInfo@SegmentHeader@@@std@@@std@@U?$less@PBD@2@V?$allocator@U?$pair@QBDV?$vector@UImportInfo@SegmentHeader@@V?$allocator@UImportInfo@SegmentHeader@@@std@@@std@@@std@@@2@$0A@@std@@@std@@QAE?AV?$_Tree_unchecked_iterator@V?$_Tree_val@U?$_Tree_simple_types@U?$pair@QBDV?$vector@UImportInfo@SegmentHeader@@V?$allocator@UImportInfo@SegmentHeader@@@std@@@std@@@std@@@std@@@std@@@2@XZ ; std::_Tree<std::_Tmap_traits<char const *,std::vector<SegmentHeader::ImportInfo,std::allocator<SegmentHeader::ImportInfo> >,std::less<char const *>,std::allocator<std::pair<char const * const,std::vector<SegmentHeader::ImportInfo,std::allocator<SegmentHeader::ImportInfo> > > >,0> >::_Unchecked_begin
PUBLIC	?_Unchecked_end@?$_Tree@V?$_Tmap_traits@PBDV?$vector@UImportInfo@SegmentHeader@@V?$allocator@UImportInfo@SegmentHeader@@@std@@@std@@U?$less@PBD@2@V?$allocator@U?$pair@QBDV?$vector@UImportInfo@SegmentHeader@@V?$allocator@UImportInfo@SegmentHeader@@@std@@@std@@@std@@@2@$0A@@std@@@std@@QAE?AV?$_Tree_unchecked_iterator@V?$_Tree_val@U?$_Tree_simple_types@U?$pair@QBDV?$vector@UImportInfo@SegmentHeader@@V?$allocator@UImportInfo@SegmentHeader@@@std@@@std@@@std@@@std@@@std@@@2@XZ ; std::_Tree<std::_Tmap_traits<char const *,std::vector<SegmentHeader::ImportInfo,std::allocator<SegmentHeader::ImportInfo> >,std::less<char const *>,std::allocator<std::pair<char const * const,std::vector<SegmentHeader::ImportInfo,std::allocator<SegmentHeader::ImportInfo> > > >,0> >::_Unchecked_end
PUBLIC	??D?$_Tree_unchecked_iterator@V?$_Tree_val@U?$_Tree_simple_types@U?$pair@QBDV?$vector@UImportInfo@SegmentHeader@@V?$allocator@UImportInfo@SegmentHeader@@@std@@@std@@@std@@@std@@@std@@@std@@QBEAAU?$pair@QBDV?$vector@UImportInfo@SegmentHeader@@V?$allocator@UImportInfo@SegmentHeader@@@std@@@std@@@1@XZ ; std::_Tree_unchecked_iterator<std::_Tree_val<std::_Tree_simple_types<std::pair<char const * const,std::vector<SegmentHeader::ImportInfo,std::allocator<SegmentHeader::ImportInfo> > > > > >::operator*
PUBLIC	??E?$_Tree_unchecked_iterator@V?$_Tree_val@U?$_Tree_simple_types@U?$pair@QBDV?$vector@UImportInfo@SegmentHeader@@V?$allocator@UImportInfo@SegmentHeader@@@std@@@std@@@std@@@std@@@std@@@std@@QAEAAV01@XZ ; std::_Tree_unchecked_iterator<std::_Tree_val<std::_Tree_simple_types<std::pair<char const * const,std::vector<SegmentHeader::ImportInfo,std::allocator<SegmentHeader::ImportInfo> > > > > >::operator++
PUBLIC	??9?$_Tree_unchecked_const_iterator@V?$_Tree_val@U?$_Tree_simple_types@U?$pair@QBDV?$vector@UImportInfo@SegmentHeader@@V?$allocator@UImportInfo@SegmentHeader@@@std@@@std@@@std@@@std@@@std@@U_Iterator_base0@2@@std@@QBE_NABV01@@Z ; std::_Tree_unchecked_const_iterator<std::_Tree_val<std::_Tree_simple_types<std::pair<char const * const,std::vector<SegmentHeader::ImportInfo,std::allocator<SegmentHeader::ImportInfo> > > > >,std::_Iterator_base0>::operator!=
PUBLIC	?InvokeOEP@RuntimeHandler@@QAEXXZ		; RuntimeHandler::InvokeOEP
PUBLIC	?__autoclassinit2@?$_Tree_unchecked_const_iterator@V?$_Tree_val@U?$_Tree_simple_types@U?$pair@$$CBW4ImportType@SegmentHeader@@K@std@@@std@@@std@@U_Iterator_base0@2@@std@@QAEXI@Z ; std::_Tree_unchecked_const_iterator<std::_Tree_val<std::_Tree_simple_types<std::pair<enum SegmentHeader::ImportType const ,unsigned long> > >,std::_Iterator_base0>::__autoclassinit2
PUBLIC	?__autoclassinit2@?$basic_ostringstream@DU?$char_traits@D@std@@V?$allocator@D@2@@std@@QAEXI@Z ; std::basic_ostringstream<char,std::char_traits<char>,std::allocator<char> >::__autoclassinit2
PUBLIC	??_D?$basic_ostringstream@DU?$char_traits@D@std@@V?$allocator@D@2@@std@@QAEXXZ ; std::basic_ostringstream<char,std::char_traits<char>,std::allocator<char> >::`vbase destructor'
PUBLIC	?__autoclassinit2@?$_Tree_unchecked_iterator@V?$_Tree_val@U?$_Tree_simple_types@U?$pair@QBDV?$vector@UImportInfo@SegmentHeader@@V?$allocator@UImportInfo@SegmentHeader@@@std@@@std@@@std@@@std@@@std@@@std@@QAEXI@Z ; std::_Tree_unchecked_iterator<std::_Tree_val<std::_Tree_simple_types<std::pair<char const * const,std::vector<SegmentHeader::ImportInfo,std::allocator<SegmentHeader::ImportInfo> > > > > >::__autoclassinit2
PUBLIC	?ReconstructHotPoints@RuntimeHandler@@QAEXXZ	; RuntimeHandler::ReconstructHotPoints
PUBLIC	?ExtractSegment@RuntimeHandler@@QAEXXZ		; RuntimeHandler::ExtractSegment
PUBLIC	??1SegmentHeader@@QAE@XZ			; SegmentHeader::~SegmentHeader
PUBLIC	??0SegmentHeader@@QAE@ABV0@@Z			; SegmentHeader::SegmentHeader
PUBLIC	?GetHeader@Segment@@QAE?AVSegmentHeader@@XZ	; Segment::GetHeader
PUBLIC	??1?$map@PBDV?$vector@UImportInfo@SegmentHeader@@V?$allocator@UImportInfo@SegmentHeader@@@std@@@std@@U?$less@PBD@2@V?$allocator@U?$pair@QBDV?$vector@UImportInfo@SegmentHeader@@V?$allocator@UImportInfo@SegmentHeader@@@std@@@std@@@std@@@2@@std@@QAE@XZ ; std::map<char const *,std::vector<SegmentHeader::ImportInfo,std::allocator<SegmentHeader::ImportInfo> >,std::less<char const *>,std::allocator<std::pair<char const * const,std::vector<SegmentHeader::ImportInfo,std::allocator<SegmentHeader::ImportInfo> > > > >::~map<char const *,std::vector<SegmentHeader::ImportInfo,std::allocator<SegmentHeader::ImportInfo> >,std::less<char const *>,std::allocator<std::pair<char const * const,std::vector<SegmentHeader::ImportInfo,std::allocator<SegmentHeader::ImportInfo> > > > >
PUBLIC	?GetRelocations@SegmentHeader@@QAE?AV?$vector@KV?$allocator@K@std@@@std@@XZ ; SegmentHeader::GetRelocations
PUBLIC	?GetImports@SegmentHeader@@QAE?AV?$map@PBDV?$vector@UImportInfo@SegmentHeader@@V?$allocator@UImportInfo@SegmentHeader@@@std@@@std@@U?$less@PBD@2@V?$allocator@U?$pair@QBDV?$vector@UImportInfo@SegmentHeader@@V?$allocator@UImportInfo@SegmentHeader@@@std@@@std@@@std@@@2@@std@@XZ ; SegmentHeader::GetImports
PUBLIC	?eq@?$char_traits@D@std@@SA_NABD0@Z		; std::char_traits<char>::eq
EXTRN	??_E?$basic_ostringstream@DU?$char_traits@D@std@@V?$allocator@D@2@@std@@UAEPAXI@Z:PROC ; std::basic_ostringstream<char,std::char_traits<char>,std::allocator<char> >::`vector deleting destructor'
EXTRN	??_E?$basic_stringbuf@DU?$char_traits@D@std@@V?$allocator@D@2@@std@@UAEPAXI@Z:PROC ; std::basic_stringbuf<char,std::char_traits<char>,std::allocator<char> >::`vector deleting destructor'
;	COMDAT xdata$x
xdata$x	SEGMENT
__ehfuncinfo$?GetHeader@Segment@@QAE?AVSegmentHeader@@XZ DD 019930522H
	DD	01H
	DD	FLAT:__unwindtable$?GetHeader@Segment@@QAE?AVSegmentHeader@@XZ
	DD	2 DUP(00H)
	DD	2 DUP(00H)
	DD	00H
	DD	01H
__unwindtable$?GetHeader@Segment@@QAE?AVSegmentHeader@@XZ DD 0ffffffffH
	DD	FLAT:__unwindfunclet$?GetHeader@Segment@@QAE?AVSegmentHeader@@XZ$1
xdata$x	ENDS
;	COMDAT xdata$x
xdata$x	SEGMENT
__ehfuncinfo$??0SegmentHeader@@QAE@ABV0@@Z DD 019930522H
	DD	01H
	DD	FLAT:__unwindtable$??0SegmentHeader@@QAE@ABV0@@Z
	DD	2 DUP(00H)
	DD	2 DUP(00H)
	DD	00H
	DD	01H
__unwindtable$??0SegmentHeader@@QAE@ABV0@@Z DD 0ffffffffH
	DD	FLAT:__unwindfunclet$??0SegmentHeader@@QAE@ABV0@@Z$0
xdata$x	ENDS
;	COMDAT xdata$x
xdata$x	SEGMENT
__ehfuncinfo$?ReconstructHotPoints@RuntimeHandler@@QAEXXZ DD 019930522H
	DD	0aH
	DD	FLAT:__unwindtable$?ReconstructHotPoints@RuntimeHandler@@QAEXXZ
	DD	2 DUP(00H)
	DD	2 DUP(00H)
	DD	00H
	DD	01H
	ORG $+4
__unwindtable$?ReconstructHotPoints@RuntimeHandler@@QAEXXZ DD 0ffffffffH
	DD	FLAT:__unwindfunclet$?ReconstructHotPoints@RuntimeHandler@@QAEXXZ$9
	DD	0ffffffffH
	DD	FLAT:__unwindfunclet$?ReconstructHotPoints@RuntimeHandler@@QAEXXZ$0
	DD	0ffffffffH
	DD	FLAT:__unwindfunclet$?ReconstructHotPoints@RuntimeHandler@@QAEXXZ$14
	DD	0ffffffffH
	DD	FLAT:__unwindfunclet$?ReconstructHotPoints@RuntimeHandler@@QAEXXZ$2
	DD	03H
	DD	FLAT:__unwindfunclet$?ReconstructHotPoints@RuntimeHandler@@QAEXXZ$3
	DD	0ffffffffH
	DD	FLAT:__unwindfunclet$?ReconstructHotPoints@RuntimeHandler@@QAEXXZ$3
	DD	05H
	DD	FLAT:__unwindfunclet$?ReconstructHotPoints@RuntimeHandler@@QAEXXZ$4
	DD	06H
	DD	FLAT:__unwindfunclet$?ReconstructHotPoints@RuntimeHandler@@QAEXXZ$5
	DD	05H
	DD	FLAT:__unwindfunclet$?ReconstructHotPoints@RuntimeHandler@@QAEXXZ$6
	DD	08H
	DD	FLAT:__unwindfunclet$?ReconstructHotPoints@RuntimeHandler@@QAEXXZ$7
xdata$x	ENDS
;	COMDAT xdata$x
xdata$x	SEGMENT
__ehfuncinfo$??0?$basic_ostringstream@DU?$char_traits@D@std@@V?$allocator@D@2@@std@@QAE@H@Z DD 019930522H
	DD	02H
	DD	FLAT:__unwindtable$??0?$basic_ostringstream@DU?$char_traits@D@std@@V?$allocator@D@2@@std@@QAE@H@Z
	DD	2 DUP(00H)
	DD	2 DUP(00H)
	DD	00H
	DD	01H
__unwindtable$??0?$basic_ostringstream@DU?$char_traits@D@std@@V?$allocator@D@2@@std@@QAE@H@Z DD 0ffffffffH
	DD	FLAT:__unwindfunclet$??0?$basic_ostringstream@DU?$char_traits@D@std@@V?$allocator@D@2@@std@@QAE@H@Z$0
	DD	00H
	DD	FLAT:__unwindfunclet$??0?$basic_ostringstream@DU?$char_traits@D@std@@V?$allocator@D@2@@std@@QAE@H@Z$1
xdata$x	ENDS
;	COMDAT xdata$x
xdata$x	SEGMENT
__ehfuncinfo$?str@?$basic_stringbuf@DU?$char_traits@D@std@@V?$allocator@D@2@@std@@QBE?AV?$basic_string@DU?$char_traits@D@std@@V?$allocator@D@2@@2@XZ DD 019930522H
	DD	01H
	DD	FLAT:__unwindtable$?str@?$basic_stringbuf@DU?$char_traits@D@std@@V?$allocator@D@2@@std@@QBE?AV?$basic_string@DU?$char_traits@D@std@@V?$allocator@D@2@@2@XZ
	DD	2 DUP(00H)
	DD	2 DUP(00H)
	DD	00H
	DD	01H
__unwindtable$?str@?$basic_stringbuf@DU?$char_traits@D@std@@V?$allocator@D@2@@std@@QBE?AV?$basic_string@DU?$char_traits@D@std@@V?$allocator@D@2@@2@XZ DD 0ffffffffH
	DD	FLAT:__unwindfunclet$?str@?$basic_stringbuf@DU?$char_traits@D@std@@V?$allocator@D@2@@std@@QBE?AV?$basic_string@DU?$char_traits@D@std@@V?$allocator@D@2@@2@XZ$0
xdata$x	ENDS
;	COMDAT xdata$x
xdata$x	SEGMENT
__ehfuncinfo$?erase@?$_Tree@V?$_Tmap_traits@PBDV?$vector@UImportInfo@SegmentHeader@@V?$allocator@UImportInfo@SegmentHeader@@@std@@@std@@U?$less@PBD@2@V?$allocator@U?$pair@QBDV?$vector@UImportInfo@SegmentHeader@@V?$allocator@UImportInfo@SegmentHeader@@@std@@@std@@@std@@@2@$0A@@std@@@std@@QAE?AV?$_Tree_iterator@V?$_Tree_val@U?$_Tree_simple_types@U?$pair@QBDV?$vector@UImportInfo@SegmentHeader@@V?$allocator@UImportInfo@SegmentHeader@@@std@@@std@@@std@@@std@@@std@@@2@V?$_Tree_const_iterator@V?$_Tree_val@U?$_Tree_simple_types@U?$pair@QBDV?$vector@UImportInfo@SegmentHeader@@V?$allocator@UImportInfo@SegmentHeader@@@std@@@std@@@std@@@std@@@std@@@2@0@Z DD 019930522H
	DD	01H
	DD	FLAT:__unwindtable$?erase@?$_Tree@V?$_Tmap_traits@PBDV?$vector@UImportInfo@SegmentHeader@@V?$allocator@UImportInfo@SegmentHeader@@@std@@@std@@U?$less@PBD@2@V?$allocator@U?$pair@QBDV?$vector@UImportInfo@SegmentHeader@@V?$allocator@UImportInfo@SegmentHeader@@@std@@@std@@@std@@@2@$0A@@std@@@std@@QAE?AV?$_Tree_iterator@V?$_Tree_val@U?$_Tree_simple_types@U?$pair@QBDV?$vector@UImportInfo@SegmentHeader@@V?$allocator@UImportInfo@SegmentHeader@@@std@@@std@@@std@@@std@@@std@@@2@V?$_Tree_const_iterator@V?$_Tree_val@U?$_Tree_simple_types@U?$pair@QBDV?$vector@UImportInfo@SegmentHeader@@V?$allocator@UImportInfo@SegmentHeader@@@std@@@std@@@std@@@std@@@std@@@2@0@Z
	DD	2 DUP(00H)
	DD	2 DUP(00H)
	DD	00H
	DD	01H
__unwindtable$?erase@?$_Tree@V?$_Tmap_traits@PBDV?$vector@UImportInfo@SegmentHeader@@V?$allocator@UImportInfo@SegmentHeader@@@std@@@std@@U?$less@PBD@2@V?$allocator@U?$pair@QBDV?$vector@UImportInfo@SegmentHeader@@V?$allocator@UImportInfo@SegmentHeader@@@std@@@std@@@std@@@2@$0A@@std@@@std@@QAE?AV?$_Tree_iterator@V?$_Tree_val@U?$_Tree_simple_types@U?$pair@QBDV?$vector@UImportInfo@SegmentHeader@@V?$allocator@UImportInfo@SegmentHeader@@@std@@@std@@@std@@@std@@@std@@@2@V?$_Tree_const_iterator@V?$_Tree_val@U?$_Tree_simple_types@U?$pair@QBDV?$vector@UImportInfo@SegmentHeader@@V?$allocator@UImportInfo@SegmentHeader@@@std@@@std@@@std@@@std@@@std@@@2@0@Z DD 0ffffffffH
	DD	FLAT:___std_terminate
xdata$x	ENDS
;	COMDAT xdata$x
xdata$x	SEGMENT
__ehfuncinfo$?clear@?$_Tree@V?$_Tmap_traits@PBDV?$vector@UImportInfo@SegmentHeader@@V?$allocator@UImportInfo@SegmentHeader@@@std@@@std@@U?$less@PBD@2@V?$allocator@U?$pair@QBDV?$vector@UImportInfo@SegmentHeader@@V?$allocator@UImportInfo@SegmentHeader@@@std@@@std@@@std@@@2@$0A@@std@@@std@@QAEXXZ DD 019930522H
	DD	00H
	DD	00H
	DD	2 DUP(00H)
	DD	2 DUP(00H)
	DD	00H
	DD	05H
xdata$x	ENDS
;	COMDAT xdata$x
xdata$x	SEGMENT
__ehfuncinfo$??$?0V?$allocator@U?$_Tree_node@U?$pair@QBDV?$vector@UImportInfo@SegmentHeader@@V?$allocator@UImportInfo@SegmentHeader@@@std@@@std@@@std@@PAX@std@@@std@@@?$_Tree@V?$_Tmap_traits@PBDV?$vector@UImportInfo@SegmentHeader@@V?$allocator@UImportInfo@SegmentHeader@@@std@@@std@@U?$less@PBD@2@V?$allocator@U?$pair@QBDV?$vector@UImportInfo@SegmentHeader@@V?$allocator@UImportInfo@SegmentHeader@@@std@@@std@@@std@@@2@$0A@@std@@@std@@QAE@ABV01@$$QAV?$allocator@U?$_Tree_node@U?$pair@QBDV?$vector@UImportInfo@SegmentHeader@@V?$allocator@UImportInfo@SegmentHeader@@@std@@@std@@@std@@PAX@std@@@1@@Z DD 019930522H
	DD	03H
	DD	FLAT:__unwindtable$??$?0V?$allocator@U?$_Tree_node@U?$pair@QBDV?$vector@UImportInfo@SegmentHeader@@V?$allocator@UImportInfo@SegmentHeader@@@std@@@std@@@std@@PAX@std@@@std@@@?$_Tree@V?$_Tmap_traits@PBDV?$vector@UImportInfo@SegmentHeader@@V?$allocator@UImportInfo@SegmentHeader@@@std@@@std@@U?$less@PBD@2@V?$allocator@U?$pair@QBDV?$vector@UImportInfo@SegmentHeader@@V?$allocator@UImportInfo@SegmentHeader@@@std@@@std@@@std@@@2@$0A@@std@@@std@@QAE@ABV01@$$QAV?$allocator@U?$_Tree_node@U?$pair@QBDV?$vector@UImportInfo@SegmentHeader@@V?$allocator@UImportInfo@SegmentHeader@@@std@@@std@@@std@@PAX@std@@@1@@Z
	DD	01H
	DD	FLAT:__tryblocktable$??$?0V?$allocator@U?$_Tree_node@U?$pair@QBDV?$vector@UImportInfo@SegmentHeader@@V?$allocator@UImportInfo@SegmentHeader@@@std@@@std@@@std@@PAX@std@@@std@@@?$_Tree@V?$_Tmap_traits@PBDV?$vector@UImportInfo@SegmentHeader@@V?$allocator@UImportInfo@SegmentHeader@@@std@@@std@@U?$less@PBD@2@V?$allocator@U?$pair@QBDV?$vector@UImportInfo@SegmentHeader@@V?$allocator@UImportInfo@SegmentHeader@@@std@@@std@@@std@@@2@$0A@@std@@@std@@QAE@ABV01@$$QAV?$allocator@U?$_Tree_node@U?$pair@QBDV?$vector@UImportInfo@SegmentHeader@@V?$allocator@UImportInfo@SegmentHeader@@@std@@@std@@@std@@PAX@std@@@1@@Z
	DD	2 DUP(00H)
	DD	00H
	DD	01H
__unwindtable$??$?0V?$allocator@U?$_Tree_node@U?$pair@QBDV?$vector@UImportInfo@SegmentHeader@@V?$allocator@UImportInfo@SegmentHeader@@@std@@@std@@@std@@PAX@std@@@std@@@?$_Tree@V?$_Tmap_traits@PBDV?$vector@UImportInfo@SegmentHeader@@V?$allocator@UImportInfo@SegmentHeader@@@std@@@std@@U?$less@PBD@2@V?$allocator@U?$pair@QBDV?$vector@UImportInfo@SegmentHeader@@V?$allocator@UImportInfo@SegmentHeader@@@std@@@std@@@std@@@2@$0A@@std@@@std@@QAE@ABV01@$$QAV?$allocator@U?$_Tree_node@U?$pair@QBDV?$vector@UImportInfo@SegmentHeader@@V?$allocator@UImportInfo@SegmentHeader@@@std@@@std@@@std@@PAX@std@@@1@@Z DD 0ffffffffH
	DD	FLAT:__unwindfunclet$??$?0V?$allocator@U?$_Tree_node@U?$pair@QBDV?$vector@UImportInfo@SegmentHeader@@V?$allocator@UImportInfo@SegmentHeader@@@std@@@std@@@std@@PAX@std@@@std@@@?$_Tree@V?$_Tmap_traits@PBDV?$vector@UImportInfo@SegmentHeader@@V?$allocator@UImportInfo@SegmentHeader@@@std@@@std@@U?$less@PBD@2@V?$allocator@U?$pair@QBDV?$vector@UImportInfo@SegmentHeader@@V?$allocator@UImportInfo@SegmentHeader@@@std@@@std@@@std@@@2@$0A@@std@@@std@@QAE@ABV01@$$QAV?$allocator@U?$_Tree_node@U?$pair@QBDV?$vector@UImportInfo@SegmentHeader@@V?$allocator@UImportInfo@SegmentHeader@@@std@@@std@@@std@@PAX@std@@@1@@Z$2
	DD	00H
	DD	00H
	DD	00H
	DD	00H
__tryblocktable$??$?0V?$allocator@U?$_Tree_node@U?$pair@QBDV?$vector@UImportInfo@SegmentHeader@@V?$allocator@UImportInfo@SegmentHeader@@@std@@@std@@@std@@PAX@std@@@std@@@?$_Tree@V?$_Tmap_traits@PBDV?$vector@UImportInfo@SegmentHeader@@V?$allocator@UImportInfo@SegmentHeader@@@std@@@std@@U?$less@PBD@2@V?$allocator@U?$pair@QBDV?$vector@UImportInfo@SegmentHeader@@V?$allocator@UImportInfo@SegmentHeader@@@std@@@std@@@std@@@2@$0A@@std@@@std@@QAE@ABV01@$$QAV?$allocator@U?$_Tree_node@U?$pair@QBDV?$vector@UImportInfo@SegmentHeader@@V?$allocator@UImportInfo@SegmentHeader@@@std@@@std@@@std@@PAX@std@@@1@@Z DD 01H
	DD	01H
	DD	02H
	DD	01H
	DD	FLAT:__catchsym$??$?0V?$allocator@U?$_Tree_node@U?$pair@QBDV?$vector@UImportInfo@SegmentHeader@@V?$allocator@UImportInfo@SegmentHeader@@@std@@@std@@@std@@PAX@std@@@std@@@?$_Tree@V?$_Tmap_traits@PBDV?$vector@UImportInfo@SegmentHeader@@V?$allocator@UImportInfo@SegmentHeader@@@std@@@std@@U?$less@PBD@2@V?$allocator@U?$pair@QBDV?$vector@UImportInfo@SegmentHeader@@V?$allocator@UImportInfo@SegmentHeader@@@std@@@std@@@std@@@2@$0A@@std@@@std@@QAE@ABV01@$$QAV?$allocator@U?$_Tree_node@U?$pair@QBDV?$vector@UImportInfo@SegmentHeader@@V?$allocator@UImportInfo@SegmentHeader@@@std@@@std@@@std@@PAX@std@@@1@@Z$3
__catchsym$??$?0V?$allocator@U?$_Tree_node@U?$pair@QBDV?$vector@UImportInfo@SegmentHeader@@V?$allocator@UImportInfo@SegmentHeader@@@std@@@std@@@std@@PAX@std@@@std@@@?$_Tree@V?$_Tmap_traits@PBDV?$vector@UImportInfo@SegmentHeader@@V?$allocator@UImportInfo@SegmentHeader@@@std@@@std@@U?$less@PBD@2@V?$allocator@U?$pair@QBDV?$vector@UImportInfo@SegmentHeader@@V?$allocator@UImportInfo@SegmentHeader@@@std@@@std@@@std@@@2@$0A@@std@@@std@@QAE@ABV01@$$QAV?$allocator@U?$_Tree_node@U?$pair@QBDV?$vector@UImportInfo@SegmentHeader@@V?$allocator@UImportInfo@SegmentHeader@@@std@@@std@@@std@@PAX@std@@@1@@Z$3 DD 040H
	DD	00H
	DD	00H
	DD	FLAT:__catch$??$?0V?$allocator@U?$_Tree_node@U?$pair@QBDV?$vector@UImportInfo@SegmentHeader@@V?$allocator@UImportInfo@SegmentHeader@@@std@@@std@@@std@@PAX@std@@@std@@@?$_Tree@V?$_Tmap_traits@PBDV?$vector@UImportInfo@SegmentHeader@@V?$allocator@UImportInfo@SegmentHeader@@@std@@@std@@U?$less@PBD@2@V?$allocator@U?$pair@QBDV?$vector@UImportInfo@SegmentHeader@@V?$allocator@UImportInfo@SegmentHeader@@@std@@@std@@@std@@@2@$0A@@std@@@std@@QAE@ABV01@$$QAV?$allocator@U?$_Tree_node@U?$pair@QBDV?$vector@UImportInfo@SegmentHeader@@V?$allocator@UImportInfo@SegmentHeader@@@std@@@std@@@std@@PAX@std@@@1@@Z$0
xdata$x	ENDS
;	COMDAT xdata$x
xdata$x	SEGMENT
__ehfuncinfo$??$_Copy_nodes@U_Copy_tag@?$_Tree@V?$_Tmap_traits@PBDV?$vector@UImportInfo@SegmentHeader@@V?$allocator@UImportInfo@SegmentHeader@@@std@@@std@@U?$less@PBD@2@V?$allocator@U?$pair@QBDV?$vector@UImportInfo@SegmentHeader@@V?$allocator@UImportInfo@SegmentHeader@@@std@@@std@@@std@@@2@$0A@@std@@@std@@@?$_Tree@V?$_Tmap_traits@PBDV?$vector@UImportInfo@SegmentHeader@@V?$allocator@UImportInfo@SegmentHeader@@@std@@@std@@U?$less@PBD@2@V?$allocator@U?$pair@QBDV?$vector@UImportInfo@SegmentHeader@@V?$allocator@UImportInfo@SegmentHeader@@@std@@@std@@@std@@@2@$0A@@std@@@std@@IAEPAU?$_Tree_node@U?$pair@QBDV?$vector@UImportInfo@SegmentHeader@@V?$allocator@UImportInfo@SegmentHeader@@@std@@@std@@@std@@PAX@1@PAU21@0U_Copy_tag@01@@Z DD 019930522H
	DD	02H
	DD	FLAT:__unwindtable$??$_Copy_nodes@U_Copy_tag@?$_Tree@V?$_Tmap_traits@PBDV?$vector@UImportInfo@SegmentHeader@@V?$allocator@UImportInfo@SegmentHeader@@@std@@@std@@U?$less@PBD@2@V?$allocator@U?$pair@QBDV?$vector@UImportInfo@SegmentHeader@@V?$allocator@UImportInfo@SegmentHeader@@@std@@@std@@@std@@@2@$0A@@std@@@std@@@?$_Tree@V?$_Tmap_traits@PBDV?$vector@UImportInfo@SegmentHeader@@V?$allocator@UImportInfo@SegmentHeader@@@std@@@std@@U?$less@PBD@2@V?$allocator@U?$pair@QBDV?$vector@UImportInfo@SegmentHeader@@V?$allocator@UImportInfo@SegmentHeader@@@std@@@std@@@std@@@2@$0A@@std@@@std@@IAEPAU?$_Tree_node@U?$pair@QBDV?$vector@UImportInfo@SegmentHeader@@V?$allocator@UImportInfo@SegmentHeader@@@std@@@std@@@std@@PAX@1@PAU21@0U_Copy_tag@01@@Z
	DD	01H
	DD	FLAT:__tryblocktable$??$_Copy_nodes@U_Copy_tag@?$_Tree@V?$_Tmap_traits@PBDV?$vector@UImportInfo@SegmentHeader@@V?$allocator@UImportInfo@SegmentHeader@@@std@@@std@@U?$less@PBD@2@V?$allocator@U?$pair@QBDV?$vector@UImportInfo@SegmentHeader@@V?$allocator@UImportInfo@SegmentHeader@@@std@@@std@@@std@@@2@$0A@@std@@@std@@@?$_Tree@V?$_Tmap_traits@PBDV?$vector@UImportInfo@SegmentHeader@@V?$allocator@UImportInfo@SegmentHeader@@@std@@@std@@U?$less@PBD@2@V?$allocator@U?$pair@QBDV?$vector@UImportInfo@SegmentHeader@@V?$allocator@UImportInfo@SegmentHeader@@@std@@@std@@@std@@@2@$0A@@std@@@std@@IAEPAU?$_Tree_node@U?$pair@QBDV?$vector@UImportInfo@SegmentHeader@@V?$allocator@UImportInfo@SegmentHeader@@@std@@@std@@@std@@PAX@1@PAU21@0U_Copy_tag@01@@Z
	DD	2 DUP(00H)
	DD	00H
	DD	01H
__unwindtable$??$_Copy_nodes@U_Copy_tag@?$_Tree@V?$_Tmap_traits@PBDV?$vector@UImportInfo@SegmentHeader@@V?$allocator@UImportInfo@SegmentHeader@@@std@@@std@@U?$less@PBD@2@V?$allocator@U?$pair@QBDV?$vector@UImportInfo@SegmentHeader@@V?$allocator@UImportInfo@SegmentHeader@@@std@@@std@@@std@@@2@$0A@@std@@@std@@@?$_Tree@V?$_Tmap_traits@PBDV?$vector@UImportInfo@SegmentHeader@@V?$allocator@UImportInfo@SegmentHeader@@@std@@@std@@U?$less@PBD@2@V?$allocator@U?$pair@QBDV?$vector@UImportInfo@SegmentHeader@@V?$allocator@UImportInfo@SegmentHeader@@@std@@@std@@@std@@@2@$0A@@std@@@std@@IAEPAU?$_Tree_node@U?$pair@QBDV?$vector@UImportInfo@SegmentHeader@@V?$allocator@UImportInfo@SegmentHeader@@@std@@@std@@@std@@PAX@1@PAU21@0U_Copy_tag@01@@Z DD 0ffffffffH
	DD	00H
	DD	0ffffffffH
	DD	00H
__tryblocktable$??$_Copy_nodes@U_Copy_tag@?$_Tree@V?$_Tmap_traits@PBDV?$vector@UImportInfo@SegmentHeader@@V?$allocator@UImportInfo@SegmentHeader@@@std@@@std@@U?$less@PBD@2@V?$allocator@U?$pair@QBDV?$vector@UImportInfo@SegmentHeader@@V?$allocator@UImportInfo@SegmentHeader@@@std@@@std@@@std@@@2@$0A@@std@@@std@@@?$_Tree@V?$_Tmap_traits@PBDV?$vector@UImportInfo@SegmentHeader@@V?$allocator@UImportInfo@SegmentHeader@@@std@@@std@@U?$less@PBD@2@V?$allocator@U?$pair@QBDV?$vector@UImportInfo@SegmentHeader@@V?$allocator@UImportInfo@SegmentHeader@@@std@@@std@@@std@@@2@$0A@@std@@@std@@IAEPAU?$_Tree_node@U?$pair@QBDV?$vector@UImportInfo@SegmentHeader@@V?$allocator@UImportInfo@SegmentHeader@@@std@@@std@@@std@@PAX@1@PAU21@0U_Copy_tag@01@@Z DD 00H
	DD	00H
	DD	01H
	DD	01H
	DD	FLAT:__catchsym$??$_Copy_nodes@U_Copy_tag@?$_Tree@V?$_Tmap_traits@PBDV?$vector@UImportInfo@SegmentHeader@@V?$allocator@UImportInfo@SegmentHeader@@@std@@@std@@U?$less@PBD@2@V?$allocator@U?$pair@QBDV?$vector@UImportInfo@SegmentHeader@@V?$allocator@UImportInfo@SegmentHeader@@@std@@@std@@@std@@@2@$0A@@std@@@std@@@?$_Tree@V?$_Tmap_traits@PBDV?$vector@UImportInfo@SegmentHeader@@V?$allocator@UImportInfo@SegmentHeader@@@std@@@std@@U?$less@PBD@2@V?$allocator@U?$pair@QBDV?$vector@UImportInfo@SegmentHeader@@V?$allocator@UImportInfo@SegmentHeader@@@std@@@std@@@std@@@2@$0A@@std@@@std@@IAEPAU?$_Tree_node@U?$pair@QBDV?$vector@UImportInfo@SegmentHeader@@V?$allocator@UImportInfo@SegmentHeader@@@std@@@std@@@std@@PAX@1@PAU21@0U_Copy_tag@01@@Z$2
__catchsym$??$_Copy_nodes@U_Copy_tag@?$_Tree@V?$_Tmap_traits@PBDV?$vector@UImportInfo@SegmentHeader@@V?$allocator@UImportInfo@SegmentHeader@@@std@@@std@@U?$less@PBD@2@V?$allocator@U?$pair@QBDV?$vector@UImportInfo@SegmentHeader@@V?$allocator@UImportInfo@SegmentHeader@@@std@@@std@@@std@@@2@$0A@@std@@@std@@@?$_Tree@V?$_Tmap_traits@PBDV?$vector@UImportInfo@SegmentHeader@@V?$allocator@UImportInfo@SegmentHeader@@@std@@@std@@U?$less@PBD@2@V?$allocator@U?$pair@QBDV?$vector@UImportInfo@SegmentHeader@@V?$allocator@UImportInfo@SegmentHeader@@@std@@@std@@@std@@@2@$0A@@std@@@std@@IAEPAU?$_Tree_node@U?$pair@QBDV?$vector@UImportInfo@SegmentHeader@@V?$allocator@UImportInfo@SegmentHeader@@@std@@@std@@@std@@PAX@1@PAU21@0U_Copy_tag@01@@Z$2 DD 040H
	DD	00H
	DD	00H
	DD	FLAT:__catch$??$_Copy_nodes@U_Copy_tag@?$_Tree@V?$_Tmap_traits@PBDV?$vector@UImportInfo@SegmentHeader@@V?$allocator@UImportInfo@SegmentHeader@@@std@@@std@@U?$less@PBD@2@V?$allocator@U?$pair@QBDV?$vector@UImportInfo@SegmentHeader@@V?$allocator@UImportInfo@SegmentHeader@@@std@@@std@@@std@@@2@$0A@@std@@@std@@@?$_Tree@V?$_Tmap_traits@PBDV?$vector@UImportInfo@SegmentHeader@@V?$allocator@UImportInfo@SegmentHeader@@@std@@@std@@U?$less@PBD@2@V?$allocator@U?$pair@QBDV?$vector@UImportInfo@SegmentHeader@@V?$allocator@UImportInfo@SegmentHeader@@@std@@@std@@@std@@@2@$0A@@std@@@std@@IAEPAU?$_Tree_node@U?$pair@QBDV?$vector@UImportInfo@SegmentHeader@@V?$allocator@UImportInfo@SegmentHeader@@@std@@@std@@@std@@PAX@1@PAU21@0U_Copy_tag@01@@Z$0
xdata$x	ENDS
;	COMDAT xdata$x
xdata$x	SEGMENT
__ehfuncinfo$?_Tidy@?$_Tree@V?$_Tmap_traits@W4ImportType@SegmentHeader@@KU?$less@W4ImportType@SegmentHeader@@@std@@V?$allocator@U?$pair@$$CBW4ImportType@SegmentHeader@@K@std@@@4@$00@std@@@std@@IAEXXZ DD 019930522H
	DD	01H
	DD	FLAT:__unwindtable$?_Tidy@?$_Tree@V?$_Tmap_traits@W4ImportType@SegmentHeader@@KU?$less@W4ImportType@SegmentHeader@@@std@@V?$allocator@U?$pair@$$CBW4ImportType@SegmentHeader@@K@std@@@4@$00@std@@@std@@IAEXXZ
	DD	2 DUP(00H)
	DD	2 DUP(00H)
	DD	00H
	DD	01H
__unwindtable$?_Tidy@?$_Tree@V?$_Tmap_traits@W4ImportType@SegmentHeader@@KU?$less@W4ImportType@SegmentHeader@@@std@@V?$allocator@U?$pair@$$CBW4ImportType@SegmentHeader@@K@std@@@4@$00@std@@@std@@IAEXXZ DD 0ffffffffH
	DD	FLAT:___std_terminate
xdata$x	ENDS
;	COMDAT xdata$x
xdata$x	SEGMENT
__ehfuncinfo$?erase@?$_Tree@V?$_Tmap_traits@W4ImportType@SegmentHeader@@KU?$less@W4ImportType@SegmentHeader@@@std@@V?$allocator@U?$pair@$$CBW4ImportType@SegmentHeader@@K@std@@@4@$00@std@@@std@@QAE?AV?$_Tree_iterator@V?$_Tree_val@U?$_Tree_simple_types@U?$pair@$$CBW4ImportType@SegmentHeader@@K@std@@@std@@@std@@@2@V?$_Tree_const_iterator@V?$_Tree_val@U?$_Tree_simple_types@U?$pair@$$CBW4ImportType@SegmentHeader@@K@std@@@std@@@std@@@2@0@Z DD 019930522H
	DD	01H
	DD	FLAT:__unwindtable$?erase@?$_Tree@V?$_Tmap_traits@W4ImportType@SegmentHeader@@KU?$less@W4ImportType@SegmentHeader@@@std@@V?$allocator@U?$pair@$$CBW4ImportType@SegmentHeader@@K@std@@@4@$00@std@@@std@@QAE?AV?$_Tree_iterator@V?$_Tree_val@U?$_Tree_simple_types@U?$pair@$$CBW4ImportType@SegmentHeader@@K@std@@@std@@@std@@@2@V?$_Tree_const_iterator@V?$_Tree_val@U?$_Tree_simple_types@U?$pair@$$CBW4ImportType@SegmentHeader@@K@std@@@std@@@std@@@2@0@Z
	DD	2 DUP(00H)
	DD	2 DUP(00H)
	DD	00H
	DD	01H
__unwindtable$?erase@?$_Tree@V?$_Tmap_traits@W4ImportType@SegmentHeader@@KU?$less@W4ImportType@SegmentHeader@@@std@@V?$allocator@U?$pair@$$CBW4ImportType@SegmentHeader@@K@std@@@4@$00@std@@@std@@QAE?AV?$_Tree_iterator@V?$_Tree_val@U?$_Tree_simple_types@U?$pair@$$CBW4ImportType@SegmentHeader@@K@std@@@std@@@std@@@2@V?$_Tree_const_iterator@V?$_Tree_val@U?$_Tree_simple_types@U?$pair@$$CBW4ImportType@SegmentHeader@@K@std@@@std@@@std@@@2@0@Z DD 0ffffffffH
	DD	FLAT:___std_terminate
xdata$x	ENDS
;	COMDAT xdata$x
xdata$x	SEGMENT
__ehfuncinfo$?clear@?$_Tree@V?$_Tmap_traits@W4ImportType@SegmentHeader@@KU?$less@W4ImportType@SegmentHeader@@@std@@V?$allocator@U?$pair@$$CBW4ImportType@SegmentHeader@@K@std@@@4@$00@std@@@std@@QAEXXZ DD 019930522H
	DD	00H
	DD	00H
	DD	2 DUP(00H)
	DD	2 DUP(00H)
	DD	00H
	DD	05H
xdata$x	ENDS
;	COMDAT xdata$x
xdata$x	SEGMENT
__ehfuncinfo$??$_Buynode@AAU?$pair@QBDV?$vector@UImportInfo@SegmentHeader@@V?$allocator@UImportInfo@SegmentHeader@@@std@@@std@@@std@@@?$_Tree_comp_alloc@V?$_Tmap_traits@PBDV?$vector@UImportInfo@SegmentHeader@@V?$allocator@UImportInfo@SegmentHeader@@@std@@@std@@U?$less@PBD@2@V?$allocator@U?$pair@QBDV?$vector@UImportInfo@SegmentHeader@@V?$allocator@UImportInfo@SegmentHeader@@@std@@@std@@@std@@@2@$0A@@std@@@std@@QAEPAU?$_Tree_node@U?$pair@QBDV?$vector@UImportInfo@SegmentHeader@@V?$allocator@UImportInfo@SegmentHeader@@@std@@@std@@@std@@PAX@1@AAU?$pair@QBDV?$vector@UImportInfo@SegmentHeader@@V?$allocator@UImportInfo@SegmentHeader@@@std@@@std@@@1@@Z DD 019930522H
	DD	02H
	DD	FLAT:__unwindtable$??$_Buynode@AAU?$pair@QBDV?$vector@UImportInfo@SegmentHeader@@V?$allocator@UImportInfo@SegmentHeader@@@std@@@std@@@std@@@?$_Tree_comp_alloc@V?$_Tmap_traits@PBDV?$vector@UImportInfo@SegmentHeader@@V?$allocator@UImportInfo@SegmentHeader@@@std@@@std@@U?$less@PBD@2@V?$allocator@U?$pair@QBDV?$vector@UImportInfo@SegmentHeader@@V?$allocator@UImportInfo@SegmentHeader@@@std@@@std@@@std@@@2@$0A@@std@@@std@@QAEPAU?$_Tree_node@U?$pair@QBDV?$vector@UImportInfo@SegmentHeader@@V?$allocator@UImportInfo@SegmentHeader@@@std@@@std@@@std@@PAX@1@AAU?$pair@QBDV?$vector@UImportInfo@SegmentHeader@@V?$allocator@UImportInfo@SegmentHeader@@@std@@@std@@@1@@Z
	DD	01H
	DD	FLAT:__tryblocktable$??$_Buynode@AAU?$pair@QBDV?$vector@UImportInfo@SegmentHeader@@V?$allocator@UImportInfo@SegmentHeader@@@std@@@std@@@std@@@?$_Tree_comp_alloc@V?$_Tmap_traits@PBDV?$vector@UImportInfo@SegmentHeader@@V?$allocator@UImportInfo@SegmentHeader@@@std@@@std@@U?$less@PBD@2@V?$allocator@U?$pair@QBDV?$vector@UImportInfo@SegmentHeader@@V?$allocator@UImportInfo@SegmentHeader@@@std@@@std@@@std@@@2@$0A@@std@@@std@@QAEPAU?$_Tree_node@U?$pair@QBDV?$vector@UImportInfo@SegmentHeader@@V?$allocator@UImportInfo@SegmentHeader@@@std@@@std@@@std@@PAX@1@AAU?$pair@QBDV?$vector@UImportInfo@SegmentHeader@@V?$allocator@UImportInfo@SegmentHeader@@@std@@@std@@@1@@Z
	DD	2 DUP(00H)
	DD	00H
	DD	01H
__unwindtable$??$_Buynode@AAU?$pair@QBDV?$vector@UImportInfo@SegmentHeader@@V?$allocator@UImportInfo@SegmentHeader@@@std@@@std@@@std@@@?$_Tree_comp_alloc@V?$_Tmap_traits@PBDV?$vector@UImportInfo@SegmentHeader@@V?$allocator@UImportInfo@SegmentHeader@@@std@@@std@@U?$less@PBD@2@V?$allocator@U?$pair@QBDV?$vector@UImportInfo@SegmentHeader@@V?$allocator@UImportInfo@SegmentHeader@@@std@@@std@@@std@@@2@$0A@@std@@@std@@QAEPAU?$_Tree_node@U?$pair@QBDV?$vector@UImportInfo@SegmentHeader@@V?$allocator@UImportInfo@SegmentHeader@@@std@@@std@@@std@@PAX@1@AAU?$pair@QBDV?$vector@UImportInfo@SegmentHeader@@V?$allocator@UImportInfo@SegmentHeader@@@std@@@std@@@1@@Z DD 0ffffffffH
	DD	00H
	DD	0ffffffffH
	DD	00H
__tryblocktable$??$_Buynode@AAU?$pair@QBDV?$vector@UImportInfo@SegmentHeader@@V?$allocator@UImportInfo@SegmentHeader@@@std@@@std@@@std@@@?$_Tree_comp_alloc@V?$_Tmap_traits@PBDV?$vector@UImportInfo@SegmentHeader@@V?$allocator@UImportInfo@SegmentHeader@@@std@@@std@@U?$less@PBD@2@V?$allocator@U?$pair@QBDV?$vector@UImportInfo@SegmentHeader@@V?$allocator@UImportInfo@SegmentHeader@@@std@@@std@@@std@@@2@$0A@@std@@@std@@QAEPAU?$_Tree_node@U?$pair@QBDV?$vector@UImportInfo@SegmentHeader@@V?$allocator@UImportInfo@SegmentHeader@@@std@@@std@@@std@@PAX@1@AAU?$pair@QBDV?$vector@UImportInfo@SegmentHeader@@V?$allocator@UImportInfo@SegmentHeader@@@std@@@std@@@1@@Z DD 00H
	DD	00H
	DD	01H
	DD	01H
	DD	FLAT:__catchsym$??$_Buynode@AAU?$pair@QBDV?$vector@UImportInfo@SegmentHeader@@V?$allocator@UImportInfo@SegmentHeader@@@std@@@std@@@std@@@?$_Tree_comp_alloc@V?$_Tmap_traits@PBDV?$vector@UImportInfo@SegmentHeader@@V?$allocator@UImportInfo@SegmentHeader@@@std@@@std@@U?$less@PBD@2@V?$allocator@U?$pair@QBDV?$vector@UImportInfo@SegmentHeader@@V?$allocator@UImportInfo@SegmentHeader@@@std@@@std@@@std@@@2@$0A@@std@@@std@@QAEPAU?$_Tree_node@U?$pair@QBDV?$vector@UImportInfo@SegmentHeader@@V?$allocator@UImportInfo@SegmentHeader@@@std@@@std@@@std@@PAX@1@AAU?$pair@QBDV?$vector@UImportInfo@SegmentHeader@@V?$allocator@UImportInfo@SegmentHeader@@@std@@@std@@@1@@Z$3
__catchsym$??$_Buynode@AAU?$pair@QBDV?$vector@UImportInfo@SegmentHeader@@V?$allocator@UImportInfo@SegmentHeader@@@std@@@std@@@std@@@?$_Tree_comp_alloc@V?$_Tmap_traits@PBDV?$vector@UImportInfo@SegmentHeader@@V?$allocator@UImportInfo@SegmentHeader@@@std@@@std@@U?$less@PBD@2@V?$allocator@U?$pair@QBDV?$vector@UImportInfo@SegmentHeader@@V?$allocator@UImportInfo@SegmentHeader@@@std@@@std@@@std@@@2@$0A@@std@@@std@@QAEPAU?$_Tree_node@U?$pair@QBDV?$vector@UImportInfo@SegmentHeader@@V?$allocator@UImportInfo@SegmentHeader@@@std@@@std@@@std@@PAX@1@AAU?$pair@QBDV?$vector@UImportInfo@SegmentHeader@@V?$allocator@UImportInfo@SegmentHeader@@@std@@@std@@@1@@Z$3 DD 040H
	DD	00H
	DD	00H
	DD	FLAT:__catch$??$_Buynode@AAU?$pair@QBDV?$vector@UImportInfo@SegmentHeader@@V?$allocator@UImportInfo@SegmentHeader@@@std@@@std@@@std@@@?$_Tree_comp_alloc@V?$_Tmap_traits@PBDV?$vector@UImportInfo@SegmentHeader@@V?$allocator@UImportInfo@SegmentHeader@@@std@@@std@@U?$less@PBD@2@V?$allocator@U?$pair@QBDV?$vector@UImportInfo@SegmentHeader@@V?$allocator@UImportInfo@SegmentHeader@@@std@@@std@@@std@@@2@$0A@@std@@@std@@QAEPAU?$_Tree_node@U?$pair@QBDV?$vector@UImportInfo@SegmentHeader@@V?$allocator@UImportInfo@SegmentHeader@@@std@@@std@@@std@@PAX@1@AAU?$pair@QBDV?$vector@UImportInfo@SegmentHeader@@V?$allocator@UImportInfo@SegmentHeader@@@std@@@std@@@1@@Z$0
xdata$x	ENDS
;	COMDAT xdata$x
xdata$x	SEGMENT
__ehfuncinfo$??0?$vector@UImportInfo@SegmentHeader@@V?$allocator@UImportInfo@SegmentHeader@@@std@@@std@@QAE@ABV01@@Z DD 019930522H
	DD	03H
	DD	FLAT:__unwindtable$??0?$vector@UImportInfo@SegmentHeader@@V?$allocator@UImportInfo@SegmentHeader@@@std@@@std@@QAE@ABV01@@Z
	DD	01H
	DD	FLAT:__tryblocktable$??0?$vector@UImportInfo@SegmentHeader@@V?$allocator@UImportInfo@SegmentHeader@@@std@@@std@@QAE@ABV01@@Z
	DD	2 DUP(00H)
	DD	00H
	DD	01H
__unwindtable$??0?$vector@UImportInfo@SegmentHeader@@V?$allocator@UImportInfo@SegmentHeader@@@std@@@std@@QAE@ABV01@@Z DD 0ffffffffH
	DD	00H
	DD	00H
	DD	FLAT:__unwindfunclet$??0?$vector@UImportInfo@SegmentHeader@@V?$allocator@UImportInfo@SegmentHeader@@@std@@@std@@QAE@ABV01@@Z$2
	DD	0ffffffffH
	DD	00H
__tryblocktable$??0?$vector@UImportInfo@SegmentHeader@@V?$allocator@UImportInfo@SegmentHeader@@@std@@@std@@QAE@ABV01@@Z DD 00H
	DD	01H
	DD	02H
	DD	01H
	DD	FLAT:__catchsym$??0?$vector@UImportInfo@SegmentHeader@@V?$allocator@UImportInfo@SegmentHeader@@@std@@@std@@QAE@ABV01@@Z$8
__catchsym$??0?$vector@UImportInfo@SegmentHeader@@V?$allocator@UImportInfo@SegmentHeader@@@std@@@std@@QAE@ABV01@@Z$8 DD 040H
	DD	00H
	DD	00H
	DD	FLAT:__catch$??0?$vector@UImportInfo@SegmentHeader@@V?$allocator@UImportInfo@SegmentHeader@@@std@@@std@@QAE@ABV01@@Z$0
xdata$x	ENDS
;	COMDAT xdata$x
xdata$x	SEGMENT
__ehfuncinfo$??$_Ucopy@PAUImportInfo@SegmentHeader@@@?$vector@UImportInfo@SegmentHeader@@V?$allocator@UImportInfo@SegmentHeader@@@std@@@std@@AAEPAUImportInfo@SegmentHeader@@PAU23@00@Z DD 019930522H
	DD	01H
	DD	FLAT:__unwindtable$??$_Ucopy@PAUImportInfo@SegmentHeader@@@?$vector@UImportInfo@SegmentHeader@@V?$allocator@UImportInfo@SegmentHeader@@@std@@@std@@AAEPAUImportInfo@SegmentHeader@@PAU23@00@Z
	DD	2 DUP(00H)
	DD	2 DUP(00H)
	DD	00H
	DD	01H
__unwindtable$??$_Ucopy@PAUImportInfo@SegmentHeader@@@?$vector@UImportInfo@SegmentHeader@@V?$allocator@UImportInfo@SegmentHeader@@@std@@@std@@AAEPAUImportInfo@SegmentHeader@@PAU23@00@Z DD 0ffffffffH
	DD	FLAT:__unwindfunclet$??$_Ucopy@PAUImportInfo@SegmentHeader@@@?$vector@UImportInfo@SegmentHeader@@V?$allocator@UImportInfo@SegmentHeader@@@std@@@std@@AAEPAUImportInfo@SegmentHeader@@PAU23@00@Z$0
xdata$x	ENDS
;	COMDAT xdata$x
xdata$x	SEGMENT
__ehfuncinfo$??$_Uninitialized_copy@PAUImportInfo@SegmentHeader@@PAU12@V?$allocator@UImportInfo@SegmentHeader@@@std@@@std@@YAPAUImportInfo@SegmentHeader@@QAU12@0PAU12@AAV?$allocator@UImportInfo@SegmentHeader@@@0@@Z DD 019930522H
	DD	01H
	DD	FLAT:__unwindtable$??$_Uninitialized_copy@PAUImportInfo@SegmentHeader@@PAU12@V?$allocator@UImportInfo@SegmentHeader@@@std@@@std@@YAPAUImportInfo@SegmentHeader@@QAU12@0PAU12@AAV?$allocator@UImportInfo@SegmentHeader@@@0@@Z
	DD	2 DUP(00H)
	DD	2 DUP(00H)
	DD	00H
	DD	01H
__unwindtable$??$_Uninitialized_copy@PAUImportInfo@SegmentHeader@@PAU12@V?$allocator@UImportInfo@SegmentHeader@@@std@@@std@@YAPAUImportInfo@SegmentHeader@@QAU12@0PAU12@AAV?$allocator@UImportInfo@SegmentHeader@@@0@@Z DD 0ffffffffH
	DD	FLAT:__unwindfunclet$??$_Uninitialized_copy@PAUImportInfo@SegmentHeader@@PAU12@V?$allocator@UImportInfo@SegmentHeader@@@std@@@std@@YAPAUImportInfo@SegmentHeader@@QAU12@0PAU12@AAV?$allocator@UImportInfo@SegmentHeader@@@0@@Z$0
xdata$x	ENDS
;	COMDAT xdata$x
xdata$x	SEGMENT
__ehfuncinfo$??$_Uninitialized_copy_al_unchecked@PAUImportInfo@SegmentHeader@@PAU12@V?$allocator@UImportInfo@SegmentHeader@@@std@@@std@@YAPAUImportInfo@SegmentHeader@@PAU12@QAU12@1AAV?$allocator@UImportInfo@SegmentHeader@@@0@U_General_ptr_iterator_tag@0@U_Unused_parameter@0@@Z DD 019930522H
	DD	01H
	DD	FLAT:__unwindtable$??$_Uninitialized_copy_al_unchecked@PAUImportInfo@SegmentHeader@@PAU12@V?$allocator@UImportInfo@SegmentHeader@@@std@@@std@@YAPAUImportInfo@SegmentHeader@@PAU12@QAU12@1AAV?$allocator@UImportInfo@SegmentHeader@@@0@U_General_ptr_iterator_tag@0@U_Unused_parameter@0@@Z
	DD	2 DUP(00H)
	DD	2 DUP(00H)
	DD	00H
	DD	01H
__unwindtable$??$_Uninitialized_copy_al_unchecked@PAUImportInfo@SegmentHeader@@PAU12@V?$allocator@UImportInfo@SegmentHeader@@@std@@@std@@YAPAUImportInfo@SegmentHeader@@PAU12@QAU12@1AAV?$allocator@UImportInfo@SegmentHeader@@@0@U_General_ptr_iterator_tag@0@U_Unused_parameter@0@@Z DD 0ffffffffH
	DD	FLAT:__unwindfunclet$??$_Uninitialized_copy_al_unchecked@PAUImportInfo@SegmentHeader@@PAU12@V?$allocator@UImportInfo@SegmentHeader@@@std@@@std@@YAPAUImportInfo@SegmentHeader@@PAU12@QAU12@1AAV?$allocator@UImportInfo@SegmentHeader@@@0@U_General_ptr_iterator_tag@0@U_Unused_parameter@0@@Z$0
xdata$x	ENDS
;	COMDAT xdata$x
xdata$x	SEGMENT
__ehfuncinfo$??$?0V?$allocator@U?$_Tree_node@U?$pair@$$CBW4ImportType@SegmentHeader@@K@std@@PAX@std@@@std@@@?$_Tree@V?$_Tmap_traits@W4ImportType@SegmentHeader@@KU?$less@W4ImportType@SegmentHeader@@@std@@V?$allocator@U?$pair@$$CBW4ImportType@SegmentHeader@@K@std@@@4@$00@std@@@std@@QAE@ABV01@$$QAV?$allocator@U?$_Tree_node@U?$pair@$$CBW4ImportType@SegmentHeader@@K@std@@PAX@std@@@1@@Z DD 019930522H
	DD	03H
	DD	FLAT:__unwindtable$??$?0V?$allocator@U?$_Tree_node@U?$pair@$$CBW4ImportType@SegmentHeader@@K@std@@PAX@std@@@std@@@?$_Tree@V?$_Tmap_traits@W4ImportType@SegmentHeader@@KU?$less@W4ImportType@SegmentHeader@@@std@@V?$allocator@U?$pair@$$CBW4ImportType@SegmentHeader@@K@std@@@4@$00@std@@@std@@QAE@ABV01@$$QAV?$allocator@U?$_Tree_node@U?$pair@$$CBW4ImportType@SegmentHeader@@K@std@@PAX@std@@@1@@Z
	DD	01H
	DD	FLAT:__tryblocktable$??$?0V?$allocator@U?$_Tree_node@U?$pair@$$CBW4ImportType@SegmentHeader@@K@std@@PAX@std@@@std@@@?$_Tree@V?$_Tmap_traits@W4ImportType@SegmentHeader@@KU?$less@W4ImportType@SegmentHeader@@@std@@V?$allocator@U?$pair@$$CBW4ImportType@SegmentHeader@@K@std@@@4@$00@std@@@std@@QAE@ABV01@$$QAV?$allocator@U?$_Tree_node@U?$pair@$$CBW4ImportType@SegmentHeader@@K@std@@PAX@std@@@1@@Z
	DD	2 DUP(00H)
	DD	00H
	DD	01H
__unwindtable$??$?0V?$allocator@U?$_Tree_node@U?$pair@$$CBW4ImportType@SegmentHeader@@K@std@@PAX@std@@@std@@@?$_Tree@V?$_Tmap_traits@W4ImportType@SegmentHeader@@KU?$less@W4ImportType@SegmentHeader@@@std@@V?$allocator@U?$pair@$$CBW4ImportType@SegmentHeader@@K@std@@@4@$00@std@@@std@@QAE@ABV01@$$QAV?$allocator@U?$_Tree_node@U?$pair@$$CBW4ImportType@SegmentHeader@@K@std@@PAX@std@@@1@@Z DD 0ffffffffH
	DD	FLAT:__unwindfunclet$??$?0V?$allocator@U?$_Tree_node@U?$pair@$$CBW4ImportType@SegmentHeader@@K@std@@PAX@std@@@std@@@?$_Tree@V?$_Tmap_traits@W4ImportType@SegmentHeader@@KU?$less@W4ImportType@SegmentHeader@@@std@@V?$allocator@U?$pair@$$CBW4ImportType@SegmentHeader@@K@std@@@4@$00@std@@@std@@QAE@ABV01@$$QAV?$allocator@U?$_Tree_node@U?$pair@$$CBW4ImportType@SegmentHeader@@K@std@@PAX@std@@@1@@Z$2
	DD	00H
	DD	00H
	DD	00H
	DD	00H
__tryblocktable$??$?0V?$allocator@U?$_Tree_node@U?$pair@$$CBW4ImportType@SegmentHeader@@K@std@@PAX@std@@@std@@@?$_Tree@V?$_Tmap_traits@W4ImportType@SegmentHeader@@KU?$less@W4ImportType@SegmentHeader@@@std@@V?$allocator@U?$pair@$$CBW4ImportType@SegmentHeader@@K@std@@@4@$00@std@@@std@@QAE@ABV01@$$QAV?$allocator@U?$_Tree_node@U?$pair@$$CBW4ImportType@SegmentHeader@@K@std@@PAX@std@@@1@@Z DD 01H
	DD	01H
	DD	02H
	DD	01H
	DD	FLAT:__catchsym$??$?0V?$allocator@U?$_Tree_node@U?$pair@$$CBW4ImportType@SegmentHeader@@K@std@@PAX@std@@@std@@@?$_Tree@V?$_Tmap_traits@W4ImportType@SegmentHeader@@KU?$less@W4ImportType@SegmentHeader@@@std@@V?$allocator@U?$pair@$$CBW4ImportType@SegmentHeader@@K@std@@@4@$00@std@@@std@@QAE@ABV01@$$QAV?$allocator@U?$_Tree_node@U?$pair@$$CBW4ImportType@SegmentHeader@@K@std@@PAX@std@@@1@@Z$3
__catchsym$??$?0V?$allocator@U?$_Tree_node@U?$pair@$$CBW4ImportType@SegmentHeader@@K@std@@PAX@std@@@std@@@?$_Tree@V?$_Tmap_traits@W4ImportType@SegmentHeader@@KU?$less@W4ImportType@SegmentHeader@@@std@@V?$allocator@U?$pair@$$CBW4ImportType@SegmentHeader@@K@std@@@4@$00@std@@@std@@QAE@ABV01@$$QAV?$allocator@U?$_Tree_node@U?$pair@$$CBW4ImportType@SegmentHeader@@K@std@@PAX@std@@@1@@Z$3 DD 040H
	DD	00H
	DD	00H
	DD	FLAT:__catch$??$?0V?$allocator@U?$_Tree_node@U?$pair@$$CBW4ImportType@SegmentHeader@@K@std@@PAX@std@@@std@@@?$_Tree@V?$_Tmap_traits@W4ImportType@SegmentHeader@@KU?$less@W4ImportType@SegmentHeader@@@std@@V?$allocator@U?$pair@$$CBW4ImportType@SegmentHeader@@K@std@@@4@$00@std@@@std@@QAE@ABV01@$$QAV?$allocator@U?$_Tree_node@U?$pair@$$CBW4ImportType@SegmentHeader@@K@std@@PAX@std@@@1@@Z$0
xdata$x	ENDS
;	COMDAT xdata$x
xdata$x	SEGMENT
__ehfuncinfo$??$_Copy_nodes@U_Copy_tag@?$_Tree@V?$_Tmap_traits@W4ImportType@SegmentHeader@@KU?$less@W4ImportType@SegmentHeader@@@std@@V?$allocator@U?$pair@$$CBW4ImportType@SegmentHeader@@K@std@@@4@$00@std@@@std@@@?$_Tree@V?$_Tmap_traits@W4ImportType@SegmentHeader@@KU?$less@W4ImportType@SegmentHeader@@@std@@V?$allocator@U?$pair@$$CBW4ImportType@SegmentHeader@@K@std@@@4@$00@std@@@std@@IAEPAU?$_Tree_node@U?$pair@$$CBW4ImportType@SegmentHeader@@K@std@@PAX@1@PAU21@0U_Copy_tag@01@@Z DD 019930522H
	DD	02H
	DD	FLAT:__unwindtable$??$_Copy_nodes@U_Copy_tag@?$_Tree@V?$_Tmap_traits@W4ImportType@SegmentHeader@@KU?$less@W4ImportType@SegmentHeader@@@std@@V?$allocator@U?$pair@$$CBW4ImportType@SegmentHeader@@K@std@@@4@$00@std@@@std@@@?$_Tree@V?$_Tmap_traits@W4ImportType@SegmentHeader@@KU?$less@W4ImportType@SegmentHeader@@@std@@V?$allocator@U?$pair@$$CBW4ImportType@SegmentHeader@@K@std@@@4@$00@std@@@std@@IAEPAU?$_Tree_node@U?$pair@$$CBW4ImportType@SegmentHeader@@K@std@@PAX@1@PAU21@0U_Copy_tag@01@@Z
	DD	01H
	DD	FLAT:__tryblocktable$??$_Copy_nodes@U_Copy_tag@?$_Tree@V?$_Tmap_traits@W4ImportType@SegmentHeader@@KU?$less@W4ImportType@SegmentHeader@@@std@@V?$allocator@U?$pair@$$CBW4ImportType@SegmentHeader@@K@std@@@4@$00@std@@@std@@@?$_Tree@V?$_Tmap_traits@W4ImportType@SegmentHeader@@KU?$less@W4ImportType@SegmentHeader@@@std@@V?$allocator@U?$pair@$$CBW4ImportType@SegmentHeader@@K@std@@@4@$00@std@@@std@@IAEPAU?$_Tree_node@U?$pair@$$CBW4ImportType@SegmentHeader@@K@std@@PAX@1@PAU21@0U_Copy_tag@01@@Z
	DD	2 DUP(00H)
	DD	00H
	DD	01H
__unwindtable$??$_Copy_nodes@U_Copy_tag@?$_Tree@V?$_Tmap_traits@W4ImportType@SegmentHeader@@KU?$less@W4ImportType@SegmentHeader@@@std@@V?$allocator@U?$pair@$$CBW4ImportType@SegmentHeader@@K@std@@@4@$00@std@@@std@@@?$_Tree@V?$_Tmap_traits@W4ImportType@SegmentHeader@@KU?$less@W4ImportType@SegmentHeader@@@std@@V?$allocator@U?$pair@$$CBW4ImportType@SegmentHeader@@K@std@@@4@$00@std@@@std@@IAEPAU?$_Tree_node@U?$pair@$$CBW4ImportType@SegmentHeader@@K@std@@PAX@1@PAU21@0U_Copy_tag@01@@Z DD 0ffffffffH
	DD	00H
	DD	0ffffffffH
	DD	00H
__tryblocktable$??$_Copy_nodes@U_Copy_tag@?$_Tree@V?$_Tmap_traits@W4ImportType@SegmentHeader@@KU?$less@W4ImportType@SegmentHeader@@@std@@V?$allocator@U?$pair@$$CBW4ImportType@SegmentHeader@@K@std@@@4@$00@std@@@std@@@?$_Tree@V?$_Tmap_traits@W4ImportType@SegmentHeader@@KU?$less@W4ImportType@SegmentHeader@@@std@@V?$allocator@U?$pair@$$CBW4ImportType@SegmentHeader@@K@std@@@4@$00@std@@@std@@IAEPAU?$_Tree_node@U?$pair@$$CBW4ImportType@SegmentHeader@@K@std@@PAX@1@PAU21@0U_Copy_tag@01@@Z DD 00H
	DD	00H
	DD	01H
	DD	01H
	DD	FLAT:__catchsym$??$_Copy_nodes@U_Copy_tag@?$_Tree@V?$_Tmap_traits@W4ImportType@SegmentHeader@@KU?$less@W4ImportType@SegmentHeader@@@std@@V?$allocator@U?$pair@$$CBW4ImportType@SegmentHeader@@K@std@@@4@$00@std@@@std@@@?$_Tree@V?$_Tmap_traits@W4ImportType@SegmentHeader@@KU?$less@W4ImportType@SegmentHeader@@@std@@V?$allocator@U?$pair@$$CBW4ImportType@SegmentHeader@@K@std@@@4@$00@std@@@std@@IAEPAU?$_Tree_node@U?$pair@$$CBW4ImportType@SegmentHeader@@K@std@@PAX@1@PAU21@0U_Copy_tag@01@@Z$2
__catchsym$??$_Copy_nodes@U_Copy_tag@?$_Tree@V?$_Tmap_traits@W4ImportType@SegmentHeader@@KU?$less@W4ImportType@SegmentHeader@@@std@@V?$allocator@U?$pair@$$CBW4ImportType@SegmentHeader@@K@std@@@4@$00@std@@@std@@@?$_Tree@V?$_Tmap_traits@W4ImportType@SegmentHeader@@KU?$less@W4ImportType@SegmentHeader@@@std@@V?$allocator@U?$pair@$$CBW4ImportType@SegmentHeader@@K@std@@@4@$00@std@@@std@@IAEPAU?$_Tree_node@U?$pair@$$CBW4ImportType@SegmentHeader@@K@std@@PAX@1@PAU21@0U_Copy_tag@01@@Z$2 DD 040H
	DD	00H
	DD	00H
	DD	FLAT:__catch$??$_Copy_nodes@U_Copy_tag@?$_Tree@V?$_Tmap_traits@W4ImportType@SegmentHeader@@KU?$less@W4ImportType@SegmentHeader@@@std@@V?$allocator@U?$pair@$$CBW4ImportType@SegmentHeader@@K@std@@@4@$00@std@@@std@@@?$_Tree@V?$_Tmap_traits@W4ImportType@SegmentHeader@@KU?$less@W4ImportType@SegmentHeader@@@std@@V?$allocator@U?$pair@$$CBW4ImportType@SegmentHeader@@K@std@@@4@$00@std@@@std@@IAEPAU?$_Tree_node@U?$pair@$$CBW4ImportType@SegmentHeader@@K@std@@PAX@1@PAU21@0U_Copy_tag@01@@Z$0
; Function compile flags: /Ogtp
; File c:\program files (x86)\microsoft visual studio\2017\community\vc\tools\msvc\14.16.27023\include\iosfwd
;	COMDAT ?eq@?$char_traits@D@std@@SA_NABD0@Z
_TEXT	SEGMENT
?eq@?$char_traits@D@std@@SA_NABD0@Z PROC		; std::char_traits<char>::eq, COMDAT
; __Left$ = ecx
; __Right$ = edx

; 511  : 		return (_Left == _Right);

  00000	8a 01		 mov	 al, BYTE PTR [ecx]
  00002	3a 02		 cmp	 al, BYTE PTR [edx]
  00004	0f 94 c0	 sete	 al

; 512  : 		}

  00007	c3		 ret	 0
?eq@?$char_traits@D@std@@SA_NABD0@Z ENDP		; std::char_traits<char>::eq
_TEXT	ENDS
; Function compile flags: /Ogtp
; File c:\users\henry\source\repos\otc\otc\otc\headers\segment\segmentheader.h
; File c:\program files (x86)\microsoft visual studio\2017\community\vc\tools\msvc\14.16.27023\include\map
; File c:\users\henry\source\repos\otc\otc\otc\headers\segment\segmentheader.h
;	COMDAT ?GetImports@SegmentHeader@@QAE?AV?$map@PBDV?$vector@UImportInfo@SegmentHeader@@V?$allocator@UImportInfo@SegmentHeader@@@std@@@std@@U?$less@PBD@2@V?$allocator@U?$pair@QBDV?$vector@UImportInfo@SegmentHeader@@V?$allocator@UImportInfo@SegmentHeader@@@std@@@std@@@std@@@2@@std@@XZ
_TEXT	SEGMENT
___$ReturnUdt$ = 8					; size = 4
?GetImports@SegmentHeader@@QAE?AV?$map@PBDV?$vector@UImportInfo@SegmentHeader@@V?$allocator@UImportInfo@SegmentHeader@@@std@@@std@@U?$less@PBD@2@V?$allocator@U?$pair@QBDV?$vector@UImportInfo@SegmentHeader@@V?$allocator@UImportInfo@SegmentHeader@@@std@@@std@@@std@@@2@@std@@XZ PROC ; SegmentHeader::GetImports, COMDAT
; _this$ = ecx

; 55   :     std::map <const char*, std::vector<ImportInfo>> GetImports() {

  00000	55		 push	 ebp
  00001	8b ec		 mov	 ebp, esp
; File c:\program files (x86)\microsoft visual studio\2017\community\vc\tools\msvc\14.16.27023\include\map

; 124  : 		: _Mybase(_Right, _Alnode_traits::select_on_container_copy_construction(_Right._Getal()))

  00003	51		 push	 ecx
  00004	51		 push	 ecx
  00005	8b 4d 08	 mov	 ecx, DWORD PTR ___$ReturnUdt$[ebp]
  00008	e8 00 00 00 00	 call	 ??$?0V?$allocator@U?$_Tree_node@U?$pair@QBDV?$vector@UImportInfo@SegmentHeader@@V?$allocator@UImportInfo@SegmentHeader@@@std@@@std@@@std@@PAX@std@@@std@@@?$_Tree@V?$_Tmap_traits@PBDV?$vector@UImportInfo@SegmentHeader@@V?$allocator@UImportInfo@SegmentHeader@@@std@@@std@@U?$less@PBD@2@V?$allocator@U?$pair@QBDV?$vector@UImportInfo@SegmentHeader@@V?$allocator@UImportInfo@SegmentHeader@@@std@@@std@@@std@@@2@$0A@@std@@@std@@QAE@ABV01@$$QAV?$allocator@U?$_Tree_node@U?$pair@QBDV?$vector@UImportInfo@SegmentHeader@@V?$allocator@UImportInfo@SegmentHeader@@@std@@@std@@@std@@PAX@std@@@1@@Z ; std::_Tree<std::_Tmap_traits<char const *,std::vector<SegmentHeader::ImportInfo,std::allocator<SegmentHeader::ImportInfo> >,std::less<char const *>,std::allocator<std::pair<char const * const,std::vector<SegmentHeader::ImportInfo,std::allocator<SegmentHeader::ImportInfo> > > >,0> >::_Tree<std::_Tmap_traits<char const *,std::vector<SegmentHeader::ImportInfo,std::allocator<SegmentHeader::ImportInfo> >,std::less<char const *>,std::allocator<std::pair<char const * const,std::vector<SegmentHeader::ImportInfo,std::allocator<SegmentHeader::ImportInfo> > > >,0> ><std::allocator<std::_Tree_node<std::pair<char const * const,std::vector<SegmentHeader::ImportInfo,std::allocator<SegmentHeader::ImportInfo> > >,void *> > >
; File c:\users\henry\source\repos\otc\otc\otc\headers\segment\segmentheader.h

; 56   :         return m_imports;

  0000d	8b 45 08	 mov	 eax, DWORD PTR ___$ReturnUdt$[ebp]

; 57   :     }

  00010	5d		 pop	 ebp
  00011	c2 04 00	 ret	 4
?GetImports@SegmentHeader@@QAE?AV?$map@PBDV?$vector@UImportInfo@SegmentHeader@@V?$allocator@UImportInfo@SegmentHeader@@@std@@@std@@U?$less@PBD@2@V?$allocator@U?$pair@QBDV?$vector@UImportInfo@SegmentHeader@@V?$allocator@UImportInfo@SegmentHeader@@@std@@@std@@@std@@@2@@std@@XZ ENDP ; SegmentHeader::GetImports
_TEXT	ENDS
; Function compile flags: /Ogtp
; File c:\users\henry\source\repos\otc\otc\otc\headers\segment\segmentheader.h
;	COMDAT ?GetRelocations@SegmentHeader@@QAE?AV?$vector@KV?$allocator@K@std@@@std@@XZ
_TEXT	SEGMENT
___$ReturnUdt$ = 8					; size = 4
?GetRelocations@SegmentHeader@@QAE?AV?$vector@KV?$allocator@K@std@@@std@@XZ PROC ; SegmentHeader::GetRelocations, COMDAT
; _this$ = ecx

; 59   :     std::vector <DWORD> GetRelocations() {

  00000	55		 push	 ebp
  00001	8b ec		 mov	 ebp, esp

; 60   :         return m_relocations;

  00003	8d 41 08	 lea	 eax, DWORD PTR [ecx+8]
  00006	8b 4d 08	 mov	 ecx, DWORD PTR ___$ReturnUdt$[ebp]
  00009	50		 push	 eax
  0000a	e8 00 00 00 00	 call	 ??0?$vector@KV?$allocator@K@std@@@std@@QAE@ABV01@@Z ; std::vector<unsigned long,std::allocator<unsigned long> >::vector<unsigned long,std::allocator<unsigned long> >
  0000f	8b 45 08	 mov	 eax, DWORD PTR ___$ReturnUdt$[ebp]

; 61   :     }

  00012	5d		 pop	 ebp
  00013	c2 04 00	 ret	 4
?GetRelocations@SegmentHeader@@QAE?AV?$vector@KV?$allocator@K@std@@@std@@XZ ENDP ; SegmentHeader::GetRelocations
_TEXT	ENDS
; Function compile flags: /Ogtp
; File c:\program files (x86)\microsoft visual studio\2017\community\vc\tools\msvc\14.16.27023\include\xtree
; File c:\program files (x86)\microsoft visual studio\2017\community\vc\tools\msvc\14.16.27023\include\xmemory0
;	COMDAT ??1?$map@PBDV?$vector@UImportInfo@SegmentHeader@@V?$allocator@UImportInfo@SegmentHeader@@@std@@@std@@U?$less@PBD@2@V?$allocator@U?$pair@QBDV?$vector@UImportInfo@SegmentHeader@@V?$allocator@UImportInfo@SegmentHeader@@@std@@@std@@@std@@@2@@std@@QAE@XZ
_TEXT	SEGMENT
$T17 = -4						; size = 4
??1?$map@PBDV?$vector@UImportInfo@SegmentHeader@@V?$allocator@UImportInfo@SegmentHeader@@@std@@@std@@U?$less@PBD@2@V?$allocator@U?$pair@QBDV?$vector@UImportInfo@SegmentHeader@@V?$allocator@UImportInfo@SegmentHeader@@@std@@@std@@@std@@@2@@std@@QAE@XZ PROC ; std::map<char const *,std::vector<SegmentHeader::ImportInfo,std::allocator<SegmentHeader::ImportInfo> >,std::less<char const *>,std::allocator<std::pair<char const * const,std::vector<SegmentHeader::ImportInfo,std::allocator<SegmentHeader::ImportInfo> > > > >::~map<char const *,std::vector<SegmentHeader::ImportInfo,std::allocator<SegmentHeader::ImportInfo> >,std::less<char const *>,std::allocator<std::pair<char const * const,std::vector<SegmentHeader::ImportInfo,std::allocator<SegmentHeader::ImportInfo> > > > >, COMDAT
; _this$ = ecx
  00000	55		 push	 ebp
  00001	8b ec		 mov	 ebp, esp
  00003	51		 push	 ecx
; File c:\program files (x86)\microsoft visual studio\2017\community\vc\tools\msvc\14.16.27023\include\xtree

; 42   : 		: _Ptr(_Pnode)

  00004	56		 push	 esi
  00005	8b f1		 mov	 esi, ecx
  00007	8b 06		 mov	 eax, DWORD PTR [esi]

; 2113 : 		erase(begin(), end());

  00009	50		 push	 eax
  0000a	ff 30		 push	 DWORD PTR [eax]
  0000c	8d 45 fc	 lea	 eax, DWORD PTR $T17[ebp]
  0000f	50		 push	 eax
  00010	e8 00 00 00 00	 call	 ?erase@?$_Tree@V?$_Tmap_traits@PBDV?$vector@UImportInfo@SegmentHeader@@V?$allocator@UImportInfo@SegmentHeader@@@std@@@std@@U?$less@PBD@2@V?$allocator@U?$pair@QBDV?$vector@UImportInfo@SegmentHeader@@V?$allocator@UImportInfo@SegmentHeader@@@std@@@std@@@std@@@2@$0A@@std@@@std@@QAE?AV?$_Tree_iterator@V?$_Tree_val@U?$_Tree_simple_types@U?$pair@QBDV?$vector@UImportInfo@SegmentHeader@@V?$allocator@UImportInfo@SegmentHeader@@@std@@@std@@@std@@@std@@@std@@@2@V?$_Tree_const_iterator@V?$_Tree_val@U?$_Tree_simple_types@U?$pair@QBDV?$vector@UImportInfo@SegmentHeader@@V?$allocator@UImportInfo@SegmentHeader@@@std@@@std@@@std@@@std@@@std@@@2@0@Z ; std::_Tree<std::_Tmap_traits<char const *,std::vector<SegmentHeader::ImportInfo,std::allocator<SegmentHeader::ImportInfo> >,std::less<char const *>,std::allocator<std::pair<char const * const,std::vector<SegmentHeader::ImportInfo,std::allocator<SegmentHeader::ImportInfo> > > >,0> >::erase
; File c:\program files (x86)\microsoft visual studio\2017\community\vc\tools\msvc\14.16.27023\include\xmemory0

; 207  : 	::operator delete(_Ptr, _Bytes);

  00015	6a 20		 push	 32			; 00000020H
  00017	ff 36		 push	 DWORD PTR [esi]
  00019	e8 00 00 00 00	 call	 ??3@YAXPAXI@Z		; operator delete
  0001e	83 c4 08	 add	 esp, 8
  00021	5e		 pop	 esi
  00022	8b e5		 mov	 esp, ebp
  00024	5d		 pop	 ebp
  00025	c3		 ret	 0
??1?$map@PBDV?$vector@UImportInfo@SegmentHeader@@V?$allocator@UImportInfo@SegmentHeader@@@std@@@std@@U?$less@PBD@2@V?$allocator@U?$pair@QBDV?$vector@UImportInfo@SegmentHeader@@V?$allocator@UImportInfo@SegmentHeader@@@std@@@std@@@std@@@2@@std@@QAE@XZ ENDP ; std::map<char const *,std::vector<SegmentHeader::ImportInfo,std::allocator<SegmentHeader::ImportInfo> >,std::less<char const *>,std::allocator<std::pair<char const * const,std::vector<SegmentHeader::ImportInfo,std::allocator<SegmentHeader::ImportInfo> > > > >::~map<char const *,std::vector<SegmentHeader::ImportInfo,std::allocator<SegmentHeader::ImportInfo> >,std::less<char const *>,std::allocator<std::pair<char const * const,std::vector<SegmentHeader::ImportInfo,std::allocator<SegmentHeader::ImportInfo> > > > >
_TEXT	ENDS
; Function compile flags: /Ogtp
; File c:\users\henry\source\repos\otc\otc\otc\headers\segment\segment.h
; File c:\program files (x86)\microsoft visual studio\2017\community\vc\tools\msvc\14.16.27023\include\map
; File c:\users\henry\source\repos\otc\otc\otc\headers\segment\segment.h
;	COMDAT ?GetHeader@Segment@@QAE?AVSegmentHeader@@XZ
_TEXT	SEGMENT
__$EHRec$ = -12						; size = 12
___$ReturnUdt$ = 8					; size = 4
?GetHeader@Segment@@QAE?AVSegmentHeader@@XZ PROC	; Segment::GetHeader, COMDAT
; _this$ = ecx

; 39   : 	SegmentHeader GetHeader () {

  00000	55		 push	 ebp
  00001	8b ec		 mov	 ebp, esp
  00003	6a ff		 push	 -1
  00005	68 00 00 00 00	 push	 __ehhandler$?GetHeader@Segment@@QAE?AVSegmentHeader@@XZ
  0000a	64 a1 00 00 00
	00		 mov	 eax, DWORD PTR fs:0
  00010	50		 push	 eax
  00011	56		 push	 esi
  00012	57		 push	 edi
  00013	a1 00 00 00 00	 mov	 eax, DWORD PTR ___security_cookie
  00018	33 c5		 xor	 eax, ebp
  0001a	50		 push	 eax
  0001b	8d 45 f4	 lea	 eax, DWORD PTR __$EHRec$[ebp]
  0001e	64 a3 00 00 00
	00		 mov	 DWORD PTR fs:0, eax
  00024	8b f1		 mov	 esi, ecx
; File c:\program files (x86)\microsoft visual studio\2017\community\vc\tools\msvc\14.16.27023\include\map

; 124  : 		: _Mybase(_Right, _Alnode_traits::select_on_container_copy_construction(_Right._Getal()))

  00026	8b 7d 08	 mov	 edi, DWORD PTR ___$ReturnUdt$[ebp]
  00029	51		 push	 ecx
  0002a	56		 push	 esi
  0002b	8b cf		 mov	 ecx, edi
  0002d	e8 00 00 00 00	 call	 ??$?0V?$allocator@U?$_Tree_node@U?$pair@QBDV?$vector@UImportInfo@SegmentHeader@@V?$allocator@UImportInfo@SegmentHeader@@@std@@@std@@@std@@PAX@std@@@std@@@?$_Tree@V?$_Tmap_traits@PBDV?$vector@UImportInfo@SegmentHeader@@V?$allocator@UImportInfo@SegmentHeader@@@std@@@std@@U?$less@PBD@2@V?$allocator@U?$pair@QBDV?$vector@UImportInfo@SegmentHeader@@V?$allocator@UImportInfo@SegmentHeader@@@std@@@std@@@std@@@2@$0A@@std@@@std@@QAE@ABV01@$$QAV?$allocator@U?$_Tree_node@U?$pair@QBDV?$vector@UImportInfo@SegmentHeader@@V?$allocator@UImportInfo@SegmentHeader@@@std@@@std@@@std@@PAX@std@@@1@@Z ; std::_Tree<std::_Tmap_traits<char const *,std::vector<SegmentHeader::ImportInfo,std::allocator<SegmentHeader::ImportInfo> >,std::less<char const *>,std::allocator<std::pair<char const * const,std::vector<SegmentHeader::ImportInfo,std::allocator<SegmentHeader::ImportInfo> > > >,0> >::_Tree<std::_Tmap_traits<char const *,std::vector<SegmentHeader::ImportInfo,std::allocator<SegmentHeader::ImportInfo> >,std::less<char const *>,std::allocator<std::pair<char const * const,std::vector<SegmentHeader::ImportInfo,std::allocator<SegmentHeader::ImportInfo> > > >,0> ><std::allocator<std::_Tree_node<std::pair<char const * const,std::vector<SegmentHeader::ImportInfo,std::allocator<SegmentHeader::ImportInfo> > >,void *> > >
  00032	8d 4e 08	 lea	 ecx, DWORD PTR [esi+8]
  00035	c7 45 fc 00 00
	00 00		 mov	 DWORD PTR __$EHRec$[ebp+8], 0
  0003c	51		 push	 ecx
  0003d	8d 4f 08	 lea	 ecx, DWORD PTR [edi+8]
  00040	e8 00 00 00 00	 call	 ??0?$vector@KV?$allocator@K@std@@@std@@QAE@ABV01@@Z ; std::vector<unsigned long,std::allocator<unsigned long> >::vector<unsigned long,std::allocator<unsigned long> >
; File c:\users\henry\source\repos\otc\otc\otc\headers\segment\segment.h

; 40   : 		return m_Header;

  00045	8b c7		 mov	 eax, edi

; 41   : 	}

  00047	8b 4d f4	 mov	 ecx, DWORD PTR __$EHRec$[ebp]
  0004a	64 89 0d 00 00
	00 00		 mov	 DWORD PTR fs:0, ecx
  00051	59		 pop	 ecx
  00052	5f		 pop	 edi
  00053	5e		 pop	 esi
  00054	8b e5		 mov	 esp, ebp
  00056	5d		 pop	 ebp
  00057	c2 04 00	 ret	 4
_TEXT	ENDS
;	COMDAT text$x
text$x	SEGMENT
__unwindfunclet$?GetHeader@Segment@@QAE?AVSegmentHeader@@XZ$1:
  00000	8b 4d 08	 mov	 ecx, DWORD PTR ___$ReturnUdt$[ebp]
  00003	e9 00 00 00 00	 jmp	 ??1?$map@PBDV?$vector@UImportInfo@SegmentHeader@@V?$allocator@UImportInfo@SegmentHeader@@@std@@@std@@U?$less@PBD@2@V?$allocator@U?$pair@QBDV?$vector@UImportInfo@SegmentHeader@@V?$allocator@UImportInfo@SegmentHeader@@@std@@@std@@@std@@@2@@std@@QAE@XZ
__ehhandler$?GetHeader@Segment@@QAE?AVSegmentHeader@@XZ:
  00008	8b 54 24 08	 mov	 edx, DWORD PTR [esp+8]
  0000c	8d 42 0c	 lea	 eax, DWORD PTR [edx+12]
  0000f	8b 4a f4	 mov	 ecx, DWORD PTR [edx-12]
  00012	33 c8		 xor	 ecx, eax
  00014	e8 00 00 00 00	 call	 @__security_check_cookie@4
  00019	b8 00 00 00 00	 mov	 eax, OFFSET __ehfuncinfo$?GetHeader@Segment@@QAE?AVSegmentHeader@@XZ
  0001e	e9 00 00 00 00	 jmp	 ___CxxFrameHandler3
text$x	ENDS
?GetHeader@Segment@@QAE?AVSegmentHeader@@XZ ENDP	; Segment::GetHeader
; Function compile flags: /Ogtp
; File c:\program files (x86)\microsoft visual studio\2017\community\vc\tools\msvc\14.16.27023\include\map
;	COMDAT ??0SegmentHeader@@QAE@ABV0@@Z
_TEXT	SEGMENT
_this$ = -16						; size = 4
__$EHRec$ = -12						; size = 12
___that$ = 8						; size = 4
??0SegmentHeader@@QAE@ABV0@@Z PROC			; SegmentHeader::SegmentHeader, COMDAT
; _this$ = ecx
  00000	55		 push	 ebp
  00001	8b ec		 mov	 ebp, esp
  00003	6a ff		 push	 -1
  00005	68 00 00 00 00	 push	 __ehhandler$??0SegmentHeader@@QAE@ABV0@@Z
  0000a	64 a1 00 00 00
	00		 mov	 eax, DWORD PTR fs:0
  00010	50		 push	 eax
  00011	51		 push	 ecx
  00012	56		 push	 esi
  00013	57		 push	 edi
  00014	a1 00 00 00 00	 mov	 eax, DWORD PTR ___security_cookie
  00019	33 c5		 xor	 eax, ebp
  0001b	50		 push	 eax
  0001c	8d 45 f4	 lea	 eax, DWORD PTR __$EHRec$[ebp]
  0001f	64 a3 00 00 00
	00		 mov	 DWORD PTR fs:0, eax
  00025	8b f9		 mov	 edi, ecx
  00027	89 7d f0	 mov	 DWORD PTR _this$[ebp], edi

; 124  : 		: _Mybase(_Right, _Alnode_traits::select_on_container_copy_construction(_Right._Getal()))

  0002a	8b 75 08	 mov	 esi, DWORD PTR ___that$[ebp]
  0002d	51		 push	 ecx
  0002e	56		 push	 esi
  0002f	e8 00 00 00 00	 call	 ??$?0V?$allocator@U?$_Tree_node@U?$pair@QBDV?$vector@UImportInfo@SegmentHeader@@V?$allocator@UImportInfo@SegmentHeader@@@std@@@std@@@std@@PAX@std@@@std@@@?$_Tree@V?$_Tmap_traits@PBDV?$vector@UImportInfo@SegmentHeader@@V?$allocator@UImportInfo@SegmentHeader@@@std@@@std@@U?$less@PBD@2@V?$allocator@U?$pair@QBDV?$vector@UImportInfo@SegmentHeader@@V?$allocator@UImportInfo@SegmentHeader@@@std@@@std@@@std@@@2@$0A@@std@@@std@@QAE@ABV01@$$QAV?$allocator@U?$_Tree_node@U?$pair@QBDV?$vector@UImportInfo@SegmentHeader@@V?$allocator@UImportInfo@SegmentHeader@@@std@@@std@@@std@@PAX@std@@@1@@Z ; std::_Tree<std::_Tmap_traits<char const *,std::vector<SegmentHeader::ImportInfo,std::allocator<SegmentHeader::ImportInfo> >,std::less<char const *>,std::allocator<std::pair<char const * const,std::vector<SegmentHeader::ImportInfo,std::allocator<SegmentHeader::ImportInfo> > > >,0> >::_Tree<std::_Tmap_traits<char const *,std::vector<SegmentHeader::ImportInfo,std::allocator<SegmentHeader::ImportInfo> >,std::less<char const *>,std::allocator<std::pair<char const * const,std::vector<SegmentHeader::ImportInfo,std::allocator<SegmentHeader::ImportInfo> > > >,0> ><std::allocator<std::_Tree_node<std::pair<char const * const,std::vector<SegmentHeader::ImportInfo,std::allocator<SegmentHeader::ImportInfo> > >,void *> > >
  00034	8d 46 08	 lea	 eax, DWORD PTR [esi+8]
  00037	c7 45 fc 00 00
	00 00		 mov	 DWORD PTR __$EHRec$[ebp+8], 0
  0003e	50		 push	 eax
  0003f	8d 4f 08	 lea	 ecx, DWORD PTR [edi+8]
  00042	e8 00 00 00 00	 call	 ??0?$vector@KV?$allocator@K@std@@@std@@QAE@ABV01@@Z ; std::vector<unsigned long,std::allocator<unsigned long> >::vector<unsigned long,std::allocator<unsigned long> >
  00047	8b c7		 mov	 eax, edi
  00049	8b 4d f4	 mov	 ecx, DWORD PTR __$EHRec$[ebp]
  0004c	64 89 0d 00 00
	00 00		 mov	 DWORD PTR fs:0, ecx
  00053	59		 pop	 ecx
  00054	5f		 pop	 edi
  00055	5e		 pop	 esi
  00056	8b e5		 mov	 esp, ebp
  00058	5d		 pop	 ebp
  00059	c2 04 00	 ret	 4
_TEXT	ENDS
;	COMDAT text$x
text$x	SEGMENT
__unwindfunclet$??0SegmentHeader@@QAE@ABV0@@Z$0:
  00000	8b 4d f0	 mov	 ecx, DWORD PTR _this$[ebp]
  00003	e9 00 00 00 00	 jmp	 ??1?$map@PBDV?$vector@UImportInfo@SegmentHeader@@V?$allocator@UImportInfo@SegmentHeader@@@std@@@std@@U?$less@PBD@2@V?$allocator@U?$pair@QBDV?$vector@UImportInfo@SegmentHeader@@V?$allocator@UImportInfo@SegmentHeader@@@std@@@std@@@std@@@2@@std@@QAE@XZ
__ehhandler$??0SegmentHeader@@QAE@ABV0@@Z:
  00008	8b 54 24 08	 mov	 edx, DWORD PTR [esp+8]
  0000c	8d 42 0c	 lea	 eax, DWORD PTR [edx+12]
  0000f	8b 4a f0	 mov	 ecx, DWORD PTR [edx-16]
  00012	33 c8		 xor	 ecx, eax
  00014	e8 00 00 00 00	 call	 @__security_check_cookie@4
  00019	b8 00 00 00 00	 mov	 eax, OFFSET __ehfuncinfo$??0SegmentHeader@@QAE@ABV0@@Z
  0001e	e9 00 00 00 00	 jmp	 ___CxxFrameHandler3
text$x	ENDS
??0SegmentHeader@@QAE@ABV0@@Z ENDP			; SegmentHeader::SegmentHeader
; Function compile flags: /Ogtp
; File c:\program files (x86)\microsoft visual studio\2017\community\vc\tools\msvc\14.16.27023\include\vector
; File c:\program files (x86)\microsoft visual studio\2017\community\vc\tools\msvc\14.16.27023\include\xmemory0
; File c:\program files (x86)\microsoft visual studio\2017\community\vc\tools\msvc\14.16.27023\include\vector
; File c:\program files (x86)\microsoft visual studio\2017\community\vc\tools\msvc\14.16.27023\include\xmemory0
; File c:\program files (x86)\microsoft visual studio\2017\community\vc\tools\msvc\14.16.27023\include\vector
; File c:\program files (x86)\microsoft visual studio\2017\community\vc\tools\msvc\14.16.27023\include\xtree
; File c:\program files (x86)\microsoft visual studio\2017\community\vc\tools\msvc\14.16.27023\include\xmemory0
;	COMDAT ??1SegmentHeader@@QAE@XZ
_TEXT	SEGMENT
$T54 = -4						; size = 4
??1SegmentHeader@@QAE@XZ PROC				; SegmentHeader::~SegmentHeader, COMDAT
; _this$ = ecx
  00000	55		 push	 ebp
  00001	8b ec		 mov	 ebp, esp
  00003	51		 push	 ecx
; File c:\program files (x86)\microsoft visual studio\2017\community\vc\tools\msvc\14.16.27023\include\vector

; 1913 : 		if (this->_Myfirst() != pointer())

  00004	56		 push	 esi
  00005	8b f1		 mov	 esi, ecx
  00007	8b 46 08	 mov	 eax, DWORD PTR [esi+8]
  0000a	85 c0		 test	 eax, eax
  0000c	74 41		 je	 SHORT $LN6@SegmentHea

; 1715 : 		return (static_cast<size_type>(this->_Myend() - this->_Myfirst()));

  0000e	8b 4e 10	 mov	 ecx, DWORD PTR [esi+16]
  00011	2b c8		 sub	 ecx, eax
; File c:\program files (x86)\microsoft visual studio\2017\community\vc\tools\msvc\14.16.27023\include\xmemory0

; 992  : 		_Deallocate<_New_alignof<_Ty>>(_Ptr, sizeof(_Ty) * _Count);

  00013	83 e1 fc	 and	 ecx, -4			; fffffffcH

; 201  : 	if (_Bytes >= _Big_allocation_threshold)

  00016	81 f9 00 10 00
	00		 cmp	 ecx, 4096		; 00001000H
  0001c	72 12		 jb	 SHORT $LN82@SegmentHea

; 118  : 	const uintptr_t _Ptr_container = _Ptr_user[-1];

  0001e	8b 50 fc	 mov	 edx, DWORD PTR [eax-4]
  00021	83 c1 23	 add	 ecx, 35			; 00000023H

; 119  : 
; 120  : 	// If the following asserts, it likely means that we are performing
; 121  : 	// an aligned delete on memory coming from an unaligned allocation.
; 122  : 	_STL_ASSERT(_Ptr_user[-2] == _Big_allocation_sentinel, "invalid argument");
; 123  : 
; 124  : 	// Extra paranoia on aligned allocation/deallocation; ensure _Ptr_container is
; 125  : 	// in range [_Min_back_shift, _Non_user_size]
; 126  :   #ifdef _DEBUG
; 127  : 	constexpr uintptr_t _Min_back_shift = 2 * sizeof(void *);
; 128  :   #else /* ^^^ _DEBUG ^^^ // vvv !_DEBUG vvv */
; 129  : 	constexpr uintptr_t _Min_back_shift = sizeof(void *);
; 130  :   #endif /* _DEBUG */
; 131  : 	const uintptr_t _Back_shift = reinterpret_cast<uintptr_t>(_Ptr) - _Ptr_container;

  00024	2b c2		 sub	 eax, edx

; 132  : 	_STL_VERIFY(_Back_shift >= _Min_back_shift && _Back_shift <= _Non_user_size, "invalid argument");

  00026	83 c0 fc	 add	 eax, -4			; fffffffcH
  00029	83 f8 1f	 cmp	 eax, 31			; 0000001fH
  0002c	77 42		 ja	 SHORT $LN79@SegmentHea

; 133  : 	_Ptr = reinterpret_cast<void *>(_Ptr_container);

  0002e	8b c2		 mov	 eax, edx
$LN82@SegmentHea:

; 207  : 	::operator delete(_Ptr, _Bytes);

  00030	51		 push	 ecx
  00031	50		 push	 eax
  00032	e8 00 00 00 00	 call	 ??3@YAXPAXI@Z		; operator delete
; File c:\program files (x86)\microsoft visual studio\2017\community\vc\tools\msvc\14.16.27023\include\vector

; 1918 : 			this->_Myfirst() = pointer();

  00037	c7 46 08 00 00
	00 00		 mov	 DWORD PTR [esi+8], 0
; File c:\program files (x86)\microsoft visual studio\2017\community\vc\tools\msvc\14.16.27023\include\xmemory0

; 207  : 	::operator delete(_Ptr, _Bytes);

  0003e	83 c4 08	 add	 esp, 8
; File c:\program files (x86)\microsoft visual studio\2017\community\vc\tools\msvc\14.16.27023\include\vector

; 1919 : 			this->_Mylast() = pointer();

  00041	c7 46 0c 00 00
	00 00		 mov	 DWORD PTR [esi+12], 0

; 1920 : 			this->_Myend() = pointer();

  00048	c7 46 10 00 00
	00 00		 mov	 DWORD PTR [esi+16], 0
$LN6@SegmentHea:
; File c:\program files (x86)\microsoft visual studio\2017\community\vc\tools\msvc\14.16.27023\include\xtree

; 42   : 		: _Ptr(_Pnode)

  0004f	8b 06		 mov	 eax, DWORD PTR [esi]

; 2113 : 		erase(begin(), end());

  00051	8b ce		 mov	 ecx, esi
  00053	50		 push	 eax
  00054	ff 30		 push	 DWORD PTR [eax]
  00056	8d 45 fc	 lea	 eax, DWORD PTR $T54[ebp]
  00059	50		 push	 eax
  0005a	e8 00 00 00 00	 call	 ?erase@?$_Tree@V?$_Tmap_traits@PBDV?$vector@UImportInfo@SegmentHeader@@V?$allocator@UImportInfo@SegmentHeader@@@std@@@std@@U?$less@PBD@2@V?$allocator@U?$pair@QBDV?$vector@UImportInfo@SegmentHeader@@V?$allocator@UImportInfo@SegmentHeader@@@std@@@std@@@std@@@2@$0A@@std@@@std@@QAE?AV?$_Tree_iterator@V?$_Tree_val@U?$_Tree_simple_types@U?$pair@QBDV?$vector@UImportInfo@SegmentHeader@@V?$allocator@UImportInfo@SegmentHeader@@@std@@@std@@@std@@@std@@@std@@@2@V?$_Tree_const_iterator@V?$_Tree_val@U?$_Tree_simple_types@U?$pair@QBDV?$vector@UImportInfo@SegmentHeader@@V?$allocator@UImportInfo@SegmentHeader@@@std@@@std@@@std@@@std@@@std@@@2@0@Z ; std::_Tree<std::_Tmap_traits<char const *,std::vector<SegmentHeader::ImportInfo,std::allocator<SegmentHeader::ImportInfo> >,std::less<char const *>,std::allocator<std::pair<char const * const,std::vector<SegmentHeader::ImportInfo,std::allocator<SegmentHeader::ImportInfo> > > >,0> >::erase
; File c:\program files (x86)\microsoft visual studio\2017\community\vc\tools\msvc\14.16.27023\include\xmemory0

; 207  : 	::operator delete(_Ptr, _Bytes);

  0005f	6a 20		 push	 32			; 00000020H
  00061	ff 36		 push	 DWORD PTR [esi]
  00063	e8 00 00 00 00	 call	 ??3@YAXPAXI@Z		; operator delete
  00068	83 c4 08	 add	 esp, 8
  0006b	5e		 pop	 esi
  0006c	8b e5		 mov	 esp, ebp
  0006e	5d		 pop	 ebp
  0006f	c3		 ret	 0
$LN79@SegmentHea:

; 132  : 	_STL_VERIFY(_Back_shift >= _Min_back_shift && _Back_shift <= _Non_user_size, "invalid argument");

  00070	ff 15 00 00 00
	00		 call	 DWORD PTR __imp___invalid_parameter_noinfo_noreturn
$LN204@SegmentHea:
  00076	cc		 int	 3
??1SegmentHeader@@QAE@XZ ENDP				; SegmentHeader::~SegmentHeader
_TEXT	ENDS
; Function compile flags: /Ogtp
; File c:\users\henry\source\repos\otc\otc\otc\cpp\runtime\runtimehandler.cpp
; File c:\users\henry\source\repos\otc\otc\otc\cpp\utils\panicutils.cpp
; File c:\users\henry\source\repos\otc\otc\otc\cpp\runtime\runtimehandler.cpp
; File c:\users\henry\source\repos\otc\otc\otc\cpp\utils\panicutils.cpp
; File c:\users\henry\source\repos\otc\otc\otc\cpp\runtime\runtimehandler.cpp
; File c:\users\henry\source\repos\otc\otc\otc\cpp\utils\panicutils.cpp
; File c:\users\henry\source\repos\otc\otc\otc\cpp\runtime\runtimehandler.cpp
;	COMDAT ?ExtractSegment@RuntimeHandler@@QAEXXZ
_TEXT	SEGMENT
?ExtractSegment@RuntimeHandler@@QAEXXZ PROC		; RuntimeHandler::ExtractSegment, COMDAT
; _this$dead$ = ecx

; 4    :     //Allocate memory for segment, and set pointer.
; 5    :     PanicUtils::SetImportant (&Segment::UnsafeAllocatedPointer, reinterpret_cast<DWORD> (VirtualAlloc (NULL, SegmentHeader::Datacase::ALLOCATION, MEM_RESERVE | MEM_COMMIT, PAGE_EXECUTE_READWRITE)));

  00000	6a 40		 push	 64			; 00000040H
  00002	68 00 30 00 00	 push	 12288			; 00003000H
  00007	68 40 89 96 00	 push	 9865536			; 00968940H
  0000c	6a 00		 push	 0
  0000e	ff 15 00 00 00
	00		 call	 DWORD PTR __imp__VirtualAlloc@16
; File c:\users\henry\source\repos\otc\otc\otc\cpp\utils\panicutils.cpp

; 4    :     if (variable && value) {

  00014	85 c0		 test	 eax, eax
  00016	74 28		 je	 SHORT $LN4@ExtractSeg
; File c:\users\henry\source\repos\otc\otc\otc\cpp\runtime\runtimehandler.cpp

; 8    :     PanicUtils::RequireNonNull (PanicUtils::Layers::INIT, reinterpret_cast<DWORD> (memcpy (reinterpret_cast<PVOID> (Segment::GetSafeAllocationPointer()), SegmentData, SegmentHeader::Datacase::SIZE)), "Allocated memory pointer is null");

  00018	68 00 6a 18 00	 push	 1600000			; 00186a00H
  0001d	68 00 00 00 00	 push	 OFFSET ?SegmentData@@3QBEB ; SegmentData
  00022	50		 push	 eax
; File c:\users\henry\source\repos\otc\otc\otc\cpp\utils\panicutils.cpp

; 5    :         *variable = value;

  00023	a3 00 00 00 00	 mov	 DWORD PTR ?UnsafeAllocatedPointer@Segment@@2KA, eax ; Segment::UnsafeAllocatedPointer
; File c:\users\henry\source\repos\otc\otc\otc\cpp\runtime\runtimehandler.cpp

; 8    :     PanicUtils::RequireNonNull (PanicUtils::Layers::INIT, reinterpret_cast<DWORD> (memcpy (reinterpret_cast<PVOID> (Segment::GetSafeAllocationPointer()), SegmentData, SegmentHeader::Datacase::SIZE)), "Allocated memory pointer is null");

  00028	e8 00 00 00 00	 call	 _memcpy
  0002d	83 c4 0c	 add	 esp, 12			; 0000000cH
; File c:\users\henry\source\repos\otc\otc\otc\cpp\utils\panicutils.cpp

; 13   :     if (!value) {

  00030	85 c0		 test	 eax, eax
  00032	75 1b		 jne	 SHORT $LN15@ExtractSeg

; 14   :         PanicUtils::Release (layer, reason);

  00034	ba 00 00 00 00	 mov	 edx, OFFSET ??_C@_0CB@OJCABHLM@Allocated?5memory?5pointer?5is?5nul@
  00039	33 c9		 xor	 ecx, ecx
  0003b	e9 00 00 00 00	 jmp	 ?Release@PanicUtils@@SAXW4Layers@1@PBD@Z ; PanicUtils::Release
$LN4@ExtractSeg:

; 8    :         PanicUtils::Release (Layers::ROUTINE, reason);

  00040	ba 00 00 00 00	 mov	 edx, OFFSET ??_C@_0BL@CHOBNDMJ@Variable?5or?5value?5is?5null?4@
  00045	b9 01 00 00 00	 mov	 ecx, 1
  0004a	e9 00 00 00 00	 jmp	 ?Release@PanicUtils@@SAXW4Layers@1@PBD@Z ; PanicUtils::Release
$LN15@ExtractSeg:
; File c:\users\henry\source\repos\otc\otc\otc\cpp\runtime\runtimehandler.cpp

; 9    : }

  0004f	c3		 ret	 0
?ExtractSegment@RuntimeHandler@@QAEXXZ ENDP		; RuntimeHandler::ExtractSegment
_TEXT	ENDS
; Function compile flags: /Ogtp
; File c:\users\henry\source\repos\otc\otc\otc\cpp\runtime\runtimehandler.cpp
; File c:\users\henry\source\repos\otc\otc\otc\headers\segment\segment.h
; File c:\program files (x86)\microsoft visual studio\2017\community\vc\tools\msvc\14.16.27023\include\map
; File c:\users\henry\source\repos\otc\otc\otc\headers\segment\segmentheader.h
; File c:\users\henry\source\repos\otc\otc\otc\cpp\runtime\runtimehandler.cpp
; File c:\users\henry\source\repos\otc\otc\otc\headers\segment\segmentheader.h
; File c:\users\henry\source\repos\otc\otc\otc\cpp\runtime\runtimehandler.cpp
; File c:\program files (x86)\microsoft visual studio\2017\community\vc\tools\msvc\14.16.27023\include\vector
; File c:\program files (x86)\microsoft visual studio\2017\community\vc\tools\msvc\14.16.27023\include\xmemory0
; File c:\users\henry\source\repos\otc\otc\otc\headers\segment\segment.h
; File c:\program files (x86)\microsoft visual studio\2017\community\vc\tools\msvc\14.16.27023\include\map
; File c:\users\henry\source\repos\otc\otc\otc\headers\segment\segment.h
; File c:\program files (x86)\microsoft visual studio\2017\community\vc\tools\msvc\14.16.27023\include\map
; File c:\users\henry\source\repos\otc\otc\otc\cpp\runtime\runtimehandler.cpp
; File c:\program files (x86)\microsoft visual studio\2017\community\vc\tools\msvc\14.16.27023\include\map
; File c:\users\henry\source\repos\otc\otc\otc\cpp\runtime\runtimehandler.cpp
; File c:\program files (x86)\microsoft visual studio\2017\community\vc\tools\msvc\14.16.27023\include\vector
; File c:\program files (x86)\microsoft visual studio\2017\community\vc\tools\msvc\14.16.27023\include\xmemory0
; File c:\program files (x86)\microsoft visual studio\2017\community\vc\tools\msvc\14.16.27023\include\vector
; File c:\program files (x86)\microsoft visual studio\2017\community\vc\tools\msvc\14.16.27023\include\xtree
; File c:\program files (x86)\microsoft visual studio\2017\community\vc\tools\msvc\14.16.27023\include\xmemory0
; File c:\program files (x86)\microsoft visual studio\2017\community\vc\tools\msvc\14.16.27023\include\xtree
; File c:\program files (x86)\microsoft visual studio\2017\community\vc\tools\msvc\14.16.27023\include\xmemory0
; File c:\program files (x86)\microsoft visual studio\2017\community\vc\tools\msvc\14.16.27023\include\xtree
; File c:\users\henry\source\repos\otc\otc\otc\cpp\runtime\runtimehandler.cpp
; File c:\program files (x86)\microsoft visual studio\2017\community\vc\tools\msvc\14.16.27023\include\vector
; File c:\users\henry\source\repos\otc\otc\otc\cpp\runtime\runtimehandler.cpp
; File c:\users\henry\source\repos\otc\otc\otc\cpp\utils\utils.cpp
; File c:\users\henry\source\repos\otc\otc\otc\cpp\runtime\runtimehandler.cpp
; File c:\program files (x86)\microsoft visual studio\2017\community\vc\tools\msvc\14.16.27023\include\xtree
; File c:\users\henry\source\repos\otc\otc\otc\cpp\runtime\runtimehandler.cpp
; File c:\program files (x86)\microsoft visual studio\2017\community\vc\tools\msvc\14.16.27023\include\xtree
; File c:\users\henry\source\repos\otc\otc\otc\cpp\runtime\runtimehandler.cpp
; File c:\program files (x86)\microsoft visual studio\2017\community\vc\tools\msvc\14.16.27023\include\xtree
; File c:\users\henry\source\repos\otc\otc\otc\cpp\runtime\runtimehandler.cpp
; File c:\program files (x86)\microsoft visual studio\2017\community\vc\tools\msvc\14.16.27023\include\xtree
; File c:\users\henry\source\repos\otc\otc\otc\cpp\runtime\runtimehandler.cpp
; File c:\program files (x86)\microsoft visual studio\2017\community\vc\tools\msvc\14.16.27023\include\xtree
; File c:\program files (x86)\microsoft visual studio\2017\community\vc\tools\msvc\14.16.27023\include\xmemory0
; File c:\users\henry\source\repos\otc\otc\otc\cpp\runtime\runtimehandler.cpp
;	COMDAT ?ReconstructHotPoints@RuntimeHandler@@QAEXXZ
_TEXT	SEGMENT
_<end>$L2$1$ = -220					; size = 4
$T153 = -216						; size = 24
$T140 = -216						; size = 24
$T54 = -212						; size = 20
$T3 = -212						; size = 20
_<end>$L1$1$ = -192					; size = 4
$T176 = -192						; size = 4
$T118 = -192						; size = 4
_this$GSCopy$1$ = -188					; size = 4
_functionPointer$1$ = -188				; size = 4
_<begin>$L2$1$ = -184					; size = 4
_message$187 = -180					; size = 152
_message$188 = -180					; size = 152
_$S1$189 = -28						; size = 12
_$S2$190 = -24						; size = 8
__$ArrayPad$ = -16					; size = 4
__$EHRec$ = -12						; size = 12
?ReconstructHotPoints@RuntimeHandler@@QAEXXZ PROC	; RuntimeHandler::ReconstructHotPoints, COMDAT
; _this$ = ecx

; 11   : void RuntimeHandler::ReconstructHotPoints () {

  00000	55		 push	 ebp
  00001	8b ec		 mov	 ebp, esp
  00003	6a ff		 push	 -1
  00005	68 00 00 00 00	 push	 __ehhandler$?ReconstructHotPoints@RuntimeHandler@@QAEXXZ
  0000a	64 a1 00 00 00
	00		 mov	 eax, DWORD PTR fs:0
  00010	50		 push	 eax
  00011	81 ec d0 00 00
	00		 sub	 esp, 208		; 000000d0H
  00017	a1 00 00 00 00	 mov	 eax, DWORD PTR ___security_cookie
  0001c	33 c5		 xor	 eax, ebp
  0001e	89 45 f0	 mov	 DWORD PTR __$ArrayPad$[ebp], eax
  00021	53		 push	 ebx
  00022	56		 push	 esi
  00023	57		 push	 edi
  00024	50		 push	 eax
  00025	8d 45 f4	 lea	 eax, DWORD PTR __$EHRec$[ebp]
  00028	64 a3 00 00 00
	00		 mov	 DWORD PTR fs:0, eax
  0002e	8b c1		 mov	 eax, ecx
  00030	89 85 44 ff ff
	ff		 mov	 DWORD PTR _this$GSCopy$1$[ebp], eax
; File c:\users\henry\source\repos\otc\otc\otc\headers\segment\segment.h

; 40   : 		return m_Header;

  00036	8b 30		 mov	 esi, DWORD PTR [eax]
; File c:\program files (x86)\microsoft visual studio\2017\community\vc\tools\msvc\14.16.27023\include\map

; 124  : 		: _Mybase(_Right, _Alnode_traits::select_on_container_copy_construction(_Right._Getal()))

  00038	51		 push	 ecx
  00039	56		 push	 esi
  0003a	8d 8d 2c ff ff
	ff		 lea	 ecx, DWORD PTR $T3[ebp]
  00040	e8 00 00 00 00	 call	 ??$?0V?$allocator@U?$_Tree_node@U?$pair@QBDV?$vector@UImportInfo@SegmentHeader@@V?$allocator@UImportInfo@SegmentHeader@@@std@@@std@@@std@@PAX@std@@@std@@@?$_Tree@V?$_Tmap_traits@PBDV?$vector@UImportInfo@SegmentHeader@@V?$allocator@UImportInfo@SegmentHeader@@@std@@@std@@U?$less@PBD@2@V?$allocator@U?$pair@QBDV?$vector@UImportInfo@SegmentHeader@@V?$allocator@UImportInfo@SegmentHeader@@@std@@@std@@@std@@@2@$0A@@std@@@std@@QAE@ABV01@$$QAV?$allocator@U?$_Tree_node@U?$pair@QBDV?$vector@UImportInfo@SegmentHeader@@V?$allocator@UImportInfo@SegmentHeader@@@std@@@std@@@std@@PAX@std@@@1@@Z ; std::_Tree<std::_Tmap_traits<char const *,std::vector<SegmentHeader::ImportInfo,std::allocator<SegmentHeader::ImportInfo> >,std::less<char const *>,std::allocator<std::pair<char const * const,std::vector<SegmentHeader::ImportInfo,std::allocator<SegmentHeader::ImportInfo> > > >,0> >::_Tree<std::_Tmap_traits<char const *,std::vector<SegmentHeader::ImportInfo,std::allocator<SegmentHeader::ImportInfo> >,std::less<char const *>,std::allocator<std::pair<char const * const,std::vector<SegmentHeader::ImportInfo,std::allocator<SegmentHeader::ImportInfo> > > >,0> ><std::allocator<std::_Tree_node<std::pair<char const * const,std::vector<SegmentHeader::ImportInfo,std::allocator<SegmentHeader::ImportInfo> > >,void *> > >
  00045	8d 46 08	 lea	 eax, DWORD PTR [esi+8]
  00048	c7 45 fc 00 00
	00 00		 mov	 DWORD PTR __$EHRec$[ebp+8], 0
  0004f	50		 push	 eax
  00050	8d 8d 34 ff ff
	ff		 lea	 ecx, DWORD PTR $T3[ebp+8]
  00056	e8 00 00 00 00	 call	 ??0?$vector@KV?$allocator@K@std@@@std@@QAE@ABV01@@Z ; std::vector<unsigned long,std::allocator<unsigned long> >::vector<unsigned long,std::allocator<unsigned long> >
; File c:\users\henry\source\repos\otc\otc\otc\headers\segment\segmentheader.h

; 60   :         return m_relocations;

  0005b	8d 85 34 ff ff
	ff		 lea	 eax, DWORD PTR $T3[ebp+8]
; File c:\users\henry\source\repos\otc\otc\otc\cpp\runtime\runtimehandler.cpp

; 17   :     for (const auto& relocation : m_Segment.GetHeader().GetRelocations ()) {

  00061	c7 45 fc 01 00
	00 00		 mov	 DWORD PTR __$EHRec$[ebp+8], 1
; File c:\users\henry\source\repos\otc\otc\otc\headers\segment\segmentheader.h

; 60   :         return m_relocations;

  00068	50		 push	 eax
  00069	8d 4d e4	 lea	 ecx, DWORD PTR _$S1$189[ebp]
  0006c	e8 00 00 00 00	 call	 ??0?$vector@KV?$allocator@K@std@@@std@@QAE@ABV01@@Z ; std::vector<unsigned long,std::allocator<unsigned long> >::vector<unsigned long,std::allocator<unsigned long> >
; File c:\users\henry\source\repos\otc\otc\otc\cpp\runtime\runtimehandler.cpp

; 17   :     for (const auto& relocation : m_Segment.GetHeader().GetRelocations ()) {

  00071	8d 8d 2c ff ff
	ff		 lea	 ecx, DWORD PTR $T3[ebp]
  00077	c7 45 fc ff ff
	ff ff		 mov	 DWORD PTR __$EHRec$[ebp+8], -1
  0007e	e8 00 00 00 00	 call	 ??1SegmentHeader@@QAE@XZ
  00083	8b 5d e4	 mov	 ebx, DWORD PTR _$S1$189[ebp]
  00086	33 c9		 xor	 ecx, ecx
  00088	8b 7d e8	 mov	 edi, DWORD PTR _$S1$189[ebp+4]
  0008b	33 f6		 xor	 esi, esi
  0008d	2b fb		 sub	 edi, ebx
  0008f	8b d3		 mov	 edx, ebx
  00091	83 c7 03	 add	 edi, 3
  00094	c1 ef 02	 shr	 edi, 2
  00097	3b 5d e8	 cmp	 ebx, DWORD PTR _$S1$189[ebp+4]
  0009a	0f 47 f9	 cmova	 edi, ecx
  0009d	85 ff		 test	 edi, edi
  0009f	74 22		 je	 SHORT $LN3@Reconstruc
$LL4@Reconstruc:

; 18   :         //Subtract value with old base address in segment from memory.
; 19   :         *reinterpret_cast<DWORD*> (Segment::UnsafeAllocatedPointer + relocation) -= SegmentHeader::Datacase::RUNTIME;

  000a1	8b 0a		 mov	 ecx, DWORD PTR [edx]
  000a3	8d 52 04	 lea	 edx, DWORD PTR [edx+4]
  000a6	a1 00 00 00 00	 mov	 eax, DWORD PTR ?UnsafeAllocatedPointer@Segment@@2KA ; Segment::UnsafeAllocatedPointer
  000ab	46		 inc	 esi
  000ac	81 04 01 00 00
	a0 c2		 add	 DWORD PTR [ecx+eax], -1029701632 ; c2a00000H

; 20   :         //Add new base address in segment to relocations.
; 21   :         *reinterpret_cast<DWORD*> (Segment::UnsafeAllocatedPointer + relocation) += Segment::UnsafeAllocatedPointer;

  000b3	8b 42 fc	 mov	 eax, DWORD PTR [edx-4]
  000b6	8b 0d 00 00 00
	00		 mov	 ecx, DWORD PTR ?UnsafeAllocatedPointer@Segment@@2KA ; Segment::UnsafeAllocatedPointer
  000bc	01 0c 08	 add	 DWORD PTR [eax+ecx], ecx
  000bf	3b f7		 cmp	 esi, edi
  000c1	75 de		 jne	 SHORT $LL4@Reconstruc
$LN3@Reconstruc:
; File c:\program files (x86)\microsoft visual studio\2017\community\vc\tools\msvc\14.16.27023\include\vector

; 1913 : 		if (this->_Myfirst() != pointer())

  000c3	85 db		 test	 ebx, ebx
  000c5	74 39		 je	 SHORT $LN71@Reconstruc

; 1715 : 		return (static_cast<size_type>(this->_Myend() - this->_Myfirst()));

  000c7	8b 45 ec	 mov	 eax, DWORD PTR _$S1$189[ebp+8]
  000ca	2b c3		 sub	 eax, ebx
  000cc	c1 f8 02	 sar	 eax, 2
; File c:\program files (x86)\microsoft visual studio\2017\community\vc\tools\msvc\14.16.27023\include\xmemory0

; 992  : 		_Deallocate<_New_alignof<_Ty>>(_Ptr, sizeof(_Ty) * _Count);

  000cf	8d 0c 85 00 00
	00 00		 lea	 ecx, DWORD PTR [eax*4]
  000d6	8b c3		 mov	 eax, ebx

; 201  : 	if (_Bytes >= _Big_allocation_threshold)

  000d8	81 f9 00 10 00
	00		 cmp	 ecx, 4096		; 00001000H
  000de	72 16		 jb	 SHORT $LN147@Reconstruc

; 118  : 	const uintptr_t _Ptr_container = _Ptr_user[-1];

  000e0	8b 5b fc	 mov	 ebx, DWORD PTR [ebx-4]
  000e3	83 c1 23	 add	 ecx, 35			; 00000023H
  000e6	2b c3		 sub	 eax, ebx

; 119  : 
; 120  : 	// If the following asserts, it likely means that we are performing
; 121  : 	// an aligned delete on memory coming from an unaligned allocation.
; 122  : 	_STL_ASSERT(_Ptr_user[-2] == _Big_allocation_sentinel, "invalid argument");
; 123  : 
; 124  : 	// Extra paranoia on aligned allocation/deallocation; ensure _Ptr_container is
; 125  : 	// in range [_Min_back_shift, _Non_user_size]
; 126  :   #ifdef _DEBUG
; 127  : 	constexpr uintptr_t _Min_back_shift = 2 * sizeof(void *);
; 128  :   #else /* ^^^ _DEBUG ^^^ // vvv !_DEBUG vvv */
; 129  : 	constexpr uintptr_t _Min_back_shift = sizeof(void *);
; 130  :   #endif /* _DEBUG */
; 131  : 	const uintptr_t _Back_shift = reinterpret_cast<uintptr_t>(_Ptr) - _Ptr_container;
; 132  : 	_STL_VERIFY(_Back_shift >= _Min_back_shift && _Back_shift <= _Non_user_size, "invalid argument");

  000e8	83 c0 fc	 add	 eax, -4			; fffffffcH
  000eb	83 f8 1f	 cmp	 eax, 31			; 0000001fH
  000ee	76 06		 jbe	 SHORT $LN147@Reconstruc
  000f0	ff 15 00 00 00
	00		 call	 DWORD PTR __imp___invalid_parameter_noinfo_noreturn
$LN147@Reconstruc:

; 207  : 	::operator delete(_Ptr, _Bytes);

  000f6	51		 push	 ecx
  000f7	53		 push	 ebx
  000f8	e8 00 00 00 00	 call	 ??3@YAXPAXI@Z		; operator delete
  000fd	83 c4 08	 add	 esp, 8
$LN71@Reconstruc:
; File c:\users\henry\source\repos\otc\otc\otc\headers\segment\segment.h

; 40   : 		return m_Header;

  00100	8b b5 44 ff ff
	ff		 mov	 esi, DWORD PTR _this$GSCopy$1$[ebp]
; File c:\program files (x86)\microsoft visual studio\2017\community\vc\tools\msvc\14.16.27023\include\map

; 124  : 		: _Mybase(_Right, _Alnode_traits::select_on_container_copy_construction(_Right._Getal()))

  00106	51		 push	 ecx
  00107	8d 8d 2c ff ff
	ff		 lea	 ecx, DWORD PTR $T54[ebp]
; File c:\users\henry\source\repos\otc\otc\otc\headers\segment\segment.h

; 40   : 		return m_Header;

  0010d	8b 36		 mov	 esi, DWORD PTR [esi]
; File c:\program files (x86)\microsoft visual studio\2017\community\vc\tools\msvc\14.16.27023\include\map

; 124  : 		: _Mybase(_Right, _Alnode_traits::select_on_container_copy_construction(_Right._Getal()))

  0010f	56		 push	 esi
  00110	e8 00 00 00 00	 call	 ??$?0V?$allocator@U?$_Tree_node@U?$pair@QBDV?$vector@UImportInfo@SegmentHeader@@V?$allocator@UImportInfo@SegmentHeader@@@std@@@std@@@std@@PAX@std@@@std@@@?$_Tree@V?$_Tmap_traits@PBDV?$vector@UImportInfo@SegmentHeader@@V?$allocator@UImportInfo@SegmentHeader@@@std@@@std@@U?$less@PBD@2@V?$allocator@U?$pair@QBDV?$vector@UImportInfo@SegmentHeader@@V?$allocator@UImportInfo@SegmentHeader@@@std@@@std@@@std@@@2@$0A@@std@@@std@@QAE@ABV01@$$QAV?$allocator@U?$_Tree_node@U?$pair@QBDV?$vector@UImportInfo@SegmentHeader@@V?$allocator@UImportInfo@SegmentHeader@@@std@@@std@@@std@@PAX@std@@@1@@Z ; std::_Tree<std::_Tmap_traits<char const *,std::vector<SegmentHeader::ImportInfo,std::allocator<SegmentHeader::ImportInfo> >,std::less<char const *>,std::allocator<std::pair<char const * const,std::vector<SegmentHeader::ImportInfo,std::allocator<SegmentHeader::ImportInfo> > > >,0> >::_Tree<std::_Tmap_traits<char const *,std::vector<SegmentHeader::ImportInfo,std::allocator<SegmentHeader::ImportInfo> >,std::less<char const *>,std::allocator<std::pair<char const * const,std::vector<SegmentHeader::ImportInfo,std::allocator<SegmentHeader::ImportInfo> > > >,0> ><std::allocator<std::_Tree_node<std::pair<char const * const,std::vector<SegmentHeader::ImportInfo,std::allocator<SegmentHeader::ImportInfo> > >,void *> > >
  00115	8d 46 08	 lea	 eax, DWORD PTR [esi+8]
  00118	c7 45 fc 02 00
	00 00		 mov	 DWORD PTR __$EHRec$[ebp+8], 2
  0011f	50		 push	 eax
  00120	8d 8d 34 ff ff
	ff		 lea	 ecx, DWORD PTR $T54[ebp+8]
  00126	e8 00 00 00 00	 call	 ??0?$vector@KV?$allocator@K@std@@@std@@QAE@ABV01@@Z ; std::vector<unsigned long,std::allocator<unsigned long> >::vector<unsigned long,std::allocator<unsigned long> >
  0012b	51		 push	 ecx
  0012c	8d 85 2c ff ff
	ff		 lea	 eax, DWORD PTR $T54[ebp]
; File c:\users\henry\source\repos\otc\otc\otc\cpp\runtime\runtimehandler.cpp

; 29   :     for (const auto& importsMap : m_Segment.GetHeader().GetImports ()) {

  00132	c7 45 fc 03 00
	00 00		 mov	 DWORD PTR __$EHRec$[ebp+8], 3
; File c:\program files (x86)\microsoft visual studio\2017\community\vc\tools\msvc\14.16.27023\include\map

; 124  : 		: _Mybase(_Right, _Alnode_traits::select_on_container_copy_construction(_Right._Getal()))

  00139	50		 push	 eax
  0013a	8d 4d e8	 lea	 ecx, DWORD PTR _$S2$190[ebp]
  0013d	e8 00 00 00 00	 call	 ??$?0V?$allocator@U?$_Tree_node@U?$pair@QBDV?$vector@UImportInfo@SegmentHeader@@V?$allocator@UImportInfo@SegmentHeader@@@std@@@std@@@std@@PAX@std@@@std@@@?$_Tree@V?$_Tmap_traits@PBDV?$vector@UImportInfo@SegmentHeader@@V?$allocator@UImportInfo@SegmentHeader@@@std@@@std@@U?$less@PBD@2@V?$allocator@U?$pair@QBDV?$vector@UImportInfo@SegmentHeader@@V?$allocator@UImportInfo@SegmentHeader@@@std@@@std@@@std@@@2@$0A@@std@@@std@@QAE@ABV01@$$QAV?$allocator@U?$_Tree_node@U?$pair@QBDV?$vector@UImportInfo@SegmentHeader@@V?$allocator@UImportInfo@SegmentHeader@@@std@@@std@@@std@@PAX@std@@@1@@Z ; std::_Tree<std::_Tmap_traits<char const *,std::vector<SegmentHeader::ImportInfo,std::allocator<SegmentHeader::ImportInfo> >,std::less<char const *>,std::allocator<std::pair<char const * const,std::vector<SegmentHeader::ImportInfo,std::allocator<SegmentHeader::ImportInfo> > > >,0> >::_Tree<std::_Tmap_traits<char const *,std::vector<SegmentHeader::ImportInfo,std::allocator<SegmentHeader::ImportInfo> >,std::less<char const *>,std::allocator<std::pair<char const * const,std::vector<SegmentHeader::ImportInfo,std::allocator<SegmentHeader::ImportInfo> > > >,0> ><std::allocator<std::_Tree_node<std::pair<char const * const,std::vector<SegmentHeader::ImportInfo,std::allocator<SegmentHeader::ImportInfo> > >,void *> > >
; File c:\users\henry\source\repos\otc\otc\otc\cpp\runtime\runtimehandler.cpp

; 29   :     for (const auto& importsMap : m_Segment.GetHeader().GetImports ()) {

  00142	c6 45 fc 05	 mov	 BYTE PTR __$EHRec$[ebp+8], 5
; File c:\program files (x86)\microsoft visual studio\2017\community\vc\tools\msvc\14.16.27023\include\vector

; 1913 : 		if (this->_Myfirst() != pointer())

  00146	8b 8d 34 ff ff
	ff		 mov	 ecx, DWORD PTR $T54[ebp+8]
  0014c	85 c9		 test	 ecx, ecx
  0014e	74 5a		 je	 SHORT $LN211@Reconstruc

; 1715 : 		return (static_cast<size_type>(this->_Myend() - this->_Myfirst()));

  00150	8b 85 3c ff ff
	ff		 mov	 eax, DWORD PTR $T54[ebp+16]
  00156	2b c1		 sub	 eax, ecx
  00158	c1 f8 02	 sar	 eax, 2
; File c:\program files (x86)\microsoft visual studio\2017\community\vc\tools\msvc\14.16.27023\include\xmemory0

; 992  : 		_Deallocate<_New_alignof<_Ty>>(_Ptr, sizeof(_Ty) * _Count);

  0015b	8d 14 85 00 00
	00 00		 lea	 edx, DWORD PTR [eax*4]
  00162	8b c1		 mov	 eax, ecx

; 201  : 	if (_Bytes >= _Big_allocation_threshold)

  00164	81 fa 00 10 00
	00		 cmp	 edx, 4096		; 00001000H
  0016a	72 16		 jb	 SHORT $LN287@Reconstruc

; 118  : 	const uintptr_t _Ptr_container = _Ptr_user[-1];

  0016c	8b 49 fc	 mov	 ecx, DWORD PTR [ecx-4]
  0016f	83 c2 23	 add	 edx, 35			; 00000023H
  00172	2b c1		 sub	 eax, ecx

; 119  : 
; 120  : 	// If the following asserts, it likely means that we are performing
; 121  : 	// an aligned delete on memory coming from an unaligned allocation.
; 122  : 	_STL_ASSERT(_Ptr_user[-2] == _Big_allocation_sentinel, "invalid argument");
; 123  : 
; 124  : 	// Extra paranoia on aligned allocation/deallocation; ensure _Ptr_container is
; 125  : 	// in range [_Min_back_shift, _Non_user_size]
; 126  :   #ifdef _DEBUG
; 127  : 	constexpr uintptr_t _Min_back_shift = 2 * sizeof(void *);
; 128  :   #else /* ^^^ _DEBUG ^^^ // vvv !_DEBUG vvv */
; 129  : 	constexpr uintptr_t _Min_back_shift = sizeof(void *);
; 130  :   #endif /* _DEBUG */
; 131  : 	const uintptr_t _Back_shift = reinterpret_cast<uintptr_t>(_Ptr) - _Ptr_container;
; 132  : 	_STL_VERIFY(_Back_shift >= _Min_back_shift && _Back_shift <= _Non_user_size, "invalid argument");

  00174	83 c0 fc	 add	 eax, -4			; fffffffcH
  00177	83 f8 1f	 cmp	 eax, 31			; 0000001fH
  0017a	76 06		 jbe	 SHORT $LN287@Reconstruc
  0017c	ff 15 00 00 00
	00		 call	 DWORD PTR __imp___invalid_parameter_noinfo_noreturn
$LN287@Reconstruc:

; 207  : 	::operator delete(_Ptr, _Bytes);

  00182	52		 push	 edx
  00183	51		 push	 ecx
  00184	e8 00 00 00 00	 call	 ??3@YAXPAXI@Z		; operator delete
  00189	83 c4 08	 add	 esp, 8
; File c:\program files (x86)\microsoft visual studio\2017\community\vc\tools\msvc\14.16.27023\include\vector

; 1918 : 			this->_Myfirst() = pointer();

  0018c	c7 85 34 ff ff
	ff 00 00 00 00	 mov	 DWORD PTR $T54[ebp+8], 0

; 1919 : 			this->_Mylast() = pointer();

  00196	c7 85 38 ff ff
	ff 00 00 00 00	 mov	 DWORD PTR $T54[ebp+12], 0

; 1920 : 			this->_Myend() = pointer();

  001a0	c7 85 3c ff ff
	ff 00 00 00 00	 mov	 DWORD PTR $T54[ebp+16], 0
$LN211@Reconstruc:
; File c:\program files (x86)\microsoft visual studio\2017\community\vc\tools\msvc\14.16.27023\include\xtree

; 2113 : 		erase(begin(), end());

  001aa	8b 85 2c ff ff
	ff		 mov	 eax, DWORD PTR $T54[ebp]
  001b0	8d 8d 2c ff ff
	ff		 lea	 ecx, DWORD PTR $T54[ebp]
  001b6	50		 push	 eax
  001b7	ff 30		 push	 DWORD PTR [eax]
  001b9	8d 85 40 ff ff
	ff		 lea	 eax, DWORD PTR $T118[ebp]
  001bf	50		 push	 eax
  001c0	e8 00 00 00 00	 call	 ?erase@?$_Tree@V?$_Tmap_traits@PBDV?$vector@UImportInfo@SegmentHeader@@V?$allocator@UImportInfo@SegmentHeader@@@std@@@std@@U?$less@PBD@2@V?$allocator@U?$pair@QBDV?$vector@UImportInfo@SegmentHeader@@V?$allocator@UImportInfo@SegmentHeader@@@std@@@std@@@std@@@2@$0A@@std@@@std@@QAE?AV?$_Tree_iterator@V?$_Tree_val@U?$_Tree_simple_types@U?$pair@QBDV?$vector@UImportInfo@SegmentHeader@@V?$allocator@UImportInfo@SegmentHeader@@@std@@@std@@@std@@@std@@@std@@@2@V?$_Tree_const_iterator@V?$_Tree_val@U?$_Tree_simple_types@U?$pair@QBDV?$vector@UImportInfo@SegmentHeader@@V?$allocator@UImportInfo@SegmentHeader@@@std@@@std@@@std@@@std@@@std@@@2@0@Z ; std::_Tree<std::_Tmap_traits<char const *,std::vector<SegmentHeader::ImportInfo,std::allocator<SegmentHeader::ImportInfo> >,std::less<char const *>,std::allocator<std::pair<char const * const,std::vector<SegmentHeader::ImportInfo,std::allocator<SegmentHeader::ImportInfo> > > >,0> >::erase
; File c:\program files (x86)\microsoft visual studio\2017\community\vc\tools\msvc\14.16.27023\include\xmemory0

; 207  : 	::operator delete(_Ptr, _Bytes);

  001c5	6a 20		 push	 32			; 00000020H
  001c7	ff b5 2c ff ff
	ff		 push	 DWORD PTR $T54[ebp]
  001cd	e8 00 00 00 00	 call	 ??3@YAXPAXI@Z		; operator delete
; File c:\program files (x86)\microsoft visual studio\2017\community\vc\tools\msvc\14.16.27023\include\xtree

; 42   : 		: _Ptr(_Pnode)

  001d2	8b 45 e8	 mov	 eax, DWORD PTR _$S2$190[ebp]
; File c:\program files (x86)\microsoft visual studio\2017\community\vc\tools\msvc\14.16.27023\include\xmemory0

; 207  : 	::operator delete(_Ptr, _Bytes);

  001d5	83 c4 08	 add	 esp, 8
; File c:\program files (x86)\microsoft visual studio\2017\community\vc\tools\msvc\14.16.27023\include\xtree

; 42   : 		: _Ptr(_Pnode)

  001d8	89 85 40 ff ff
	ff		 mov	 DWORD PTR _<end>$L1$1$[ebp], eax
  001de	8b 38		 mov	 edi, DWORD PTR [eax]
  001e0	3b f8		 cmp	 edi, eax
; File c:\users\henry\source\repos\otc\otc\otc\cpp\runtime\runtimehandler.cpp

; 29   :     for (const auto& importsMap : m_Segment.GetHeader().GetImports ()) {

  001e2	0f 84 5f 01 00
	00		 je	 $LN782@Reconstruc
  001e8	0f 1f 84 00 00
	00 00 00	 npad	 8
$LL449@Reconstruc:
; File c:\program files (x86)\microsoft visual studio\2017\community\vc\tools\msvc\14.16.27023\include\vector

; 1684 : 		return (this->_Myfirst());

  001f0	8b 5f 14	 mov	 ebx, DWORD PTR [edi+20]

; 1694 : 		return (this->_Mylast());

  001f3	8b 4f 18	 mov	 ecx, DWORD PTR [edi+24]

; 1684 : 		return (this->_Myfirst());

  001f6	89 9d 48 ff ff
	ff		 mov	 DWORD PTR _<begin>$L2$1$[ebp], ebx

; 1694 : 		return (this->_Mylast());

  001fc	89 8d 24 ff ff
	ff		 mov	 DWORD PTR _<end>$L2$1$[ebp], ecx
; File c:\users\henry\source\repos\otc\otc\otc\cpp\runtime\runtimehandler.cpp

; 32   :         for (const auto& importInfo : importsMap.second) {

  00202	3b d9		 cmp	 ebx, ecx
  00204	0f 84 f1 00 00
	00		 je	 $LN5@Reconstruc
  0020a	66 0f 1f 44 00
	00		 npad	 6
$LL10@Reconstruc:

; 35   :             DWORD functionPointer = Utils::GetFunction (importsMap.first, importInfo.function);

  00210	8b 77 10	 mov	 esi, DWORD PTR [edi+16]
  00213	8b 1b		 mov	 ebx, DWORD PTR [ebx]
; File c:\users\henry\source\repos\otc\otc\otc\cpp\utils\utils.cpp

; 5    :    HMODULE hModule = GetModuleHandleA (module);

  00215	56		 push	 esi
  00216	ff 15 00 00 00
	00		 call	 DWORD PTR __imp__GetModuleHandleA@4

; 6    : 
; 7    :    if (!hModule) {

  0021c	85 c0		 test	 eax, eax
  0021e	75 07		 jne	 SHORT $LN482@Reconstruc

; 8    :        hModule = LoadLibraryA (module);

  00220	56		 push	 esi
  00221	ff 15 00 00 00
	00		 call	 DWORD PTR __imp__LoadLibraryA@4
$LN482@Reconstruc:

; 24   :    return reinterpret_cast<DWORD> (GetProcAddress(GetModule(module), function));

  00227	53		 push	 ebx
  00228	50		 push	 eax
  00229	ff 15 00 00 00
	00		 call	 DWORD PTR __imp__GetProcAddress@8
; File c:\users\henry\source\repos\otc\otc\otc\cpp\runtime\runtimehandler.cpp

; 35   :             DWORD functionPointer = Utils::GetFunction (importsMap.first, importInfo.function);

  0022f	8b d0		 mov	 edx, eax
  00231	89 95 44 ff ff
	ff		 mov	 DWORD PTR _functionPointer$1$[ebp], edx

; 36   : 
; 37   :             //Check non-nullptr at function and module. (Why don't use RequireNonNull? Because it's slow!)
; 38   :             if (!functionPointer) {

  00237	85 d2		 test	 edx, edx
  00239	0f 84 43 01 00
	00		 je	 $LN756@Reconstruc
; File c:\program files (x86)\microsoft visual studio\2017\community\vc\tools\msvc\14.16.27023\include\xtree

; 498  : 		return (_Myhead->_Left);

  0023f	8b 9d 48 ff ff
	ff		 mov	 ebx, DWORD PTR _<begin>$L2$1$[ebp]
  00245	8b 4b 04	 mov	 ecx, DWORD PTR [ebx+4]

; 42   : 		: _Ptr(_Pnode)

  00248	8b 31		 mov	 esi, DWORD PTR [ecx]

; 120  : 		return (_Ptr == _Right._Ptr);

  0024a	3b f1		 cmp	 esi, ecx
; File c:\users\henry\source\repos\otc\otc\otc\cpp\runtime\runtimehandler.cpp

; 46   :             for (const auto& parsedOffset : importInfo.offsetsMap) {

  0024c	0f 84 8e 00 00
	00		 je	 $LN8@Reconstruc
$LL578@Reconstruc:

; 47   : 
; 48   :                 //More about ImportType: SegmentHeader.h
; 49   :                 switch (parsedOffset.first) {

  00252	8b 46 10	 mov	 eax, DWORD PTR [esi+16]
  00255	83 e8 00	 sub	 eax, 0
  00258	74 1c		 je	 SHORT $LN17@Reconstruc
  0025a	83 e8 01	 sub	 eax, 1
  0025d	0f 85 b0 01 00
	00		 jne	 $LN783@Reconstruc

; 54   :                       break;
; 55   : 
; 56   :                     case SegmentHeader::ImportType::PUBLIC:
; 57   :                         //Patch global variables.
; 58   :                         *reinterpret_cast<DWORD*> (Segment::UnsafeAllocatedPointer + parsedOffset.second) = functionPointer;

  00263	8b 56 14	 mov	 edx, DWORD PTR [esi+20]
  00266	a1 00 00 00 00	 mov	 eax, DWORD PTR ?UnsafeAllocatedPointer@Segment@@2KA ; Segment::UnsafeAllocatedPointer
  0026b	8b 9d 44 ff ff
	ff		 mov	 ebx, DWORD PTR _functionPointer$1$[ebp]
  00271	89 1c 10	 mov	 DWORD PTR [eax+edx], ebx

; 59   :                       break;

  00274	eb 12		 jmp	 SHORT $LN11@Reconstruc
$LN17@Reconstruc:

; 50   : 
; 51   :                     case SegmentHeader::ImportType::INTERNAL:
; 52   :                         //Patch functions (and in them) that call import.
; 53   :                         *reinterpret_cast<DWORD*> (Segment::UnsafeAllocatedPointer + parsedOffset.second) = functionPointer - (Segment::UnsafeAllocatedPointer + parsedOffset.second + 0x4);

  00276	8b 5e 14	 mov	 ebx, DWORD PTR [esi+20]
  00279	2b d3		 sub	 edx, ebx
  0027b	a1 00 00 00 00	 mov	 eax, DWORD PTR ?UnsafeAllocatedPointer@Segment@@2KA ; Segment::UnsafeAllocatedPointer
  00280	2b d0		 sub	 edx, eax
  00282	83 ea 04	 sub	 edx, 4
  00285	89 14 03	 mov	 DWORD PTR [ebx+eax], edx
$LN11@Reconstruc:
; File c:\program files (x86)\microsoft visual studio\2017\community\vc\tools\msvc\14.16.27023\include\xtree

; 59   : 		if (_Ptr->_Right->_Isnil)

  00288	8b 46 08	 mov	 eax, DWORD PTR [esi+8]
  0028b	80 78 0d 00	 cmp	 BYTE PTR [eax+13], 0
  0028f	74 23		 je	 SHORT $LN577@Reconstruc

; 60   : 			{	// climb looking for right subtree
; 61   : 			_Nodeptr _Pnode;
; 62   : 			while (!(_Pnode = _Ptr->_Parent)->_Isnil && _Ptr == _Pnode->_Right)

  00291	8b 46 04	 mov	 eax, DWORD PTR [esi+4]
  00294	80 78 0d 00	 cmp	 BYTE PTR [eax+13], 0
  00298	75 16		 jne	 SHORT $LN576@Reconstruc
  0029a	66 0f 1f 44 00
	00		 npad	 6
$LL575@Reconstruc:
  002a0	3b 70 08	 cmp	 esi, DWORD PTR [eax+8]
  002a3	75 0b		 jne	 SHORT $LN576@Reconstruc

; 63   : 				{
; 64   : 				_Ptr = _Pnode;	// ==> parent while right subtree

  002a5	8b f0		 mov	 esi, eax
  002a7	8b 40 04	 mov	 eax, DWORD PTR [eax+4]
  002aa	80 78 0d 00	 cmp	 BYTE PTR [eax+13], 0
  002ae	74 f0		 je	 SHORT $LL575@Reconstruc
$LN576@Reconstruc:

; 65   : 				}
; 66   : 
; 67   : 			_Ptr = _Pnode;	// ==> parent (head if end())

  002b0	8b f0		 mov	 esi, eax

; 68   : 			}
; 69   : 		else

  002b2	eb 18		 jmp	 SHORT $LN760@Reconstruc
$LN577@Reconstruc:

; 70   : 			{
; 71   : 			_Ptr = _Mytree::_Min(_Ptr->_Right);	// ==> smallest of right subtree

  002b4	8b f0		 mov	 esi, eax

; 486  : 		while (!_Pnode->_Left->_Isnil)

  002b6	8b 16		 mov	 edx, DWORD PTR [esi]
  002b8	80 7a 0d 00	 cmp	 BYTE PTR [edx+13], 0
  002bc	75 0e		 jne	 SHORT $LN760@Reconstruc
  002be	66 90		 npad	 2
$LL581@Reconstruc:
  002c0	8b 02		 mov	 eax, DWORD PTR [edx]

; 487  : 			_Pnode = _Pnode->_Left;

  002c2	8b f2		 mov	 esi, edx
  002c4	8b d0		 mov	 edx, eax
  002c6	80 78 0d 00	 cmp	 BYTE PTR [eax+13], 0
  002ca	74 f4		 je	 SHORT $LL581@Reconstruc
$LN760@Reconstruc:
; File c:\users\henry\source\repos\otc\otc\otc\cpp\runtime\runtimehandler.cpp

; 46   :             for (const auto& parsedOffset : importInfo.offsetsMap) {

  002cc	8b 95 44 ff ff
	ff		 mov	 edx, DWORD PTR _functionPointer$1$[ebp]
; File c:\program files (x86)\microsoft visual studio\2017\community\vc\tools\msvc\14.16.27023\include\xtree

; 120  : 		return (_Ptr == _Right._Ptr);

  002d2	3b f1		 cmp	 esi, ecx
; File c:\users\henry\source\repos\otc\otc\otc\cpp\runtime\runtimehandler.cpp

; 46   :             for (const auto& parsedOffset : importInfo.offsetsMap) {

  002d4	0f 85 78 ff ff
	ff		 jne	 $LL578@Reconstruc
  002da	8b 9d 48 ff ff
	ff		 mov	 ebx, DWORD PTR _<begin>$L2$1$[ebp]
$LN8@Reconstruc:

; 32   :         for (const auto& importInfo : importsMap.second) {

  002e0	83 c3 0c	 add	 ebx, 12			; 0000000cH
  002e3	89 9d 48 ff ff
	ff		 mov	 DWORD PTR _<begin>$L2$1$[ebp], ebx
  002e9	3b 9d 24 ff ff
	ff		 cmp	 ebx, DWORD PTR _<end>$L2$1$[ebp]
  002ef	0f 85 1b ff ff
	ff		 jne	 $LL10@Reconstruc
  002f5	8b 85 40 ff ff
	ff		 mov	 eax, DWORD PTR _<end>$L1$1$[ebp]
$LN5@Reconstruc:
; File c:\program files (x86)\microsoft visual studio\2017\community\vc\tools\msvc\14.16.27023\include\xtree

; 59   : 		if (_Ptr->_Right->_Isnil)

  002fb	8b 4f 08	 mov	 ecx, DWORD PTR [edi+8]
  002fe	80 79 0d 00	 cmp	 BYTE PTR [ecx+13], 0
  00302	74 20		 je	 SHORT $LN448@Reconstruc

; 60   : 			{	// climb looking for right subtree
; 61   : 			_Nodeptr _Pnode;
; 62   : 			while (!(_Pnode = _Ptr->_Parent)->_Isnil && _Ptr == _Pnode->_Right)

  00304	8b 4f 04	 mov	 ecx, DWORD PTR [edi+4]
  00307	80 79 0d 00	 cmp	 BYTE PTR [ecx+13], 0
  0030b	75 13		 jne	 SHORT $LN447@Reconstruc
  0030d	0f 1f 00	 npad	 3
$LL446@Reconstruc:
  00310	3b 79 08	 cmp	 edi, DWORD PTR [ecx+8]
  00313	75 0b		 jne	 SHORT $LN447@Reconstruc

; 63   : 				{
; 64   : 				_Ptr = _Pnode;	// ==> parent while right subtree

  00315	8b f9		 mov	 edi, ecx
  00317	8b 49 04	 mov	 ecx, DWORD PTR [ecx+4]
  0031a	80 79 0d 00	 cmp	 BYTE PTR [ecx+13], 0
  0031e	74 f0		 je	 SHORT $LL446@Reconstruc
$LN447@Reconstruc:

; 65   : 				}
; 66   : 
; 67   : 			_Ptr = _Pnode;	// ==> parent (head if end())

  00320	8b f9		 mov	 edi, ecx

; 68   : 			}
; 69   : 		else

  00322	eb 18		 jmp	 SHORT $LN764@Reconstruc
$LN448@Reconstruc:

; 70   : 			{
; 71   : 			_Ptr = _Mytree::_Min(_Ptr->_Right);	// ==> smallest of right subtree

  00324	8b f9		 mov	 edi, ecx

; 486  : 		while (!_Pnode->_Left->_Isnil)

  00326	8b 17		 mov	 edx, DWORD PTR [edi]
  00328	80 7a 0d 00	 cmp	 BYTE PTR [edx+13], 0
  0032c	75 0e		 jne	 SHORT $LN764@Reconstruc
  0032e	66 90		 npad	 2
$LL452@Reconstruc:
  00330	8b 0a		 mov	 ecx, DWORD PTR [edx]

; 487  : 			_Pnode = _Pnode->_Left;

  00332	8b fa		 mov	 edi, edx
  00334	8b d1		 mov	 edx, ecx
  00336	80 79 0d 00	 cmp	 BYTE PTR [ecx+13], 0
  0033a	74 f4		 je	 SHORT $LL452@Reconstruc
$LN764@Reconstruc:

; 120  : 		return (_Ptr == _Right._Ptr);

  0033c	3b f8		 cmp	 edi, eax
; File c:\users\henry\source\repos\otc\otc\otc\cpp\runtime\runtimehandler.cpp

; 29   :     for (const auto& importsMap : m_Segment.GetHeader().GetImports ()) {

  0033e	0f 85 ac fe ff
	ff		 jne	 $LL449@Reconstruc
  00344	8b 45 e8	 mov	 eax, DWORD PTR _$S2$190[ebp]
$LN782@Reconstruc:
; File c:\program files (x86)\microsoft visual studio\2017\community\vc\tools\msvc\14.16.27023\include\xtree

; 2113 : 		erase(begin(), end());

  00347	50		 push	 eax
  00348	ff 30		 push	 DWORD PTR [eax]
  0034a	8d 85 40 ff ff
	ff		 lea	 eax, DWORD PTR $T176[ebp]
  00350	50		 push	 eax
  00351	8d 4d e8	 lea	 ecx, DWORD PTR _$S2$190[ebp]
  00354	e8 00 00 00 00	 call	 ?erase@?$_Tree@V?$_Tmap_traits@PBDV?$vector@UImportInfo@SegmentHeader@@V?$allocator@UImportInfo@SegmentHeader@@@std@@@std@@U?$less@PBD@2@V?$allocator@U?$pair@QBDV?$vector@UImportInfo@SegmentHeader@@V?$allocator@UImportInfo@SegmentHeader@@@std@@@std@@@std@@@2@$0A@@std@@@std@@QAE?AV?$_Tree_iterator@V?$_Tree_val@U?$_Tree_simple_types@U?$pair@QBDV?$vector@UImportInfo@SegmentHeader@@V?$allocator@UImportInfo@SegmentHeader@@@std@@@std@@@std@@@std@@@std@@@2@V?$_Tree_const_iterator@V?$_Tree_val@U?$_Tree_simple_types@U?$pair@QBDV?$vector@UImportInfo@SegmentHeader@@V?$allocator@UImportInfo@SegmentHeader@@@std@@@std@@@std@@@std@@@std@@@2@0@Z ; std::_Tree<std::_Tmap_traits<char const *,std::vector<SegmentHeader::ImportInfo,std::allocator<SegmentHeader::ImportInfo> >,std::less<char const *>,std::allocator<std::pair<char const * const,std::vector<SegmentHeader::ImportInfo,std::allocator<SegmentHeader::ImportInfo> > > >,0> >::erase
; File c:\program files (x86)\microsoft visual studio\2017\community\vc\tools\msvc\14.16.27023\include\xmemory0

; 207  : 	::operator delete(_Ptr, _Bytes);

  00359	6a 20		 push	 32			; 00000020H
  0035b	ff 75 e8	 push	 DWORD PTR _$S2$190[ebp]
  0035e	e8 00 00 00 00	 call	 ??3@YAXPAXI@Z		; operator delete
  00363	83 c4 08	 add	 esp, 8
; File c:\users\henry\source\repos\otc\otc\otc\cpp\runtime\runtimehandler.cpp

; 77   : }

  00366	8b 4d f4	 mov	 ecx, DWORD PTR __$EHRec$[ebp]
  00369	64 89 0d 00 00
	00 00		 mov	 DWORD PTR fs:0, ecx
  00370	59		 pop	 ecx
  00371	5f		 pop	 edi
  00372	5e		 pop	 esi
  00373	5b		 pop	 ebx
  00374	8b 4d f0	 mov	 ecx, DWORD PTR __$ArrayPad$[ebp]
  00377	33 cd		 xor	 ecx, ebp
  00379	e8 00 00 00 00	 call	 @__security_check_cookie@4
  0037e	8b e5		 mov	 esp, ebp
  00380	5d		 pop	 ebp
  00381	c3		 ret	 0
$LN756@Reconstruc:

; 39   :                 //Just error. Message, value, etc.
; 40   :                 std::ostringstream message;

  00382	51		 push	 ecx
  00383	8d 8d 4c ff ff
	ff		 lea	 ecx, DWORD PTR _message$188[ebp]
  00389	e8 00 00 00 00	 call	 ?__autoclassinit2@?$basic_ostringstream@DU?$char_traits@D@std@@V?$allocator@D@2@@std@@QAEXI@Z
  0038e	83 ec 08	 sub	 esp, 8
  00391	8d 8d 4c ff ff
	ff		 lea	 ecx, DWORD PTR _message$188[ebp]
  00397	e8 00 00 00 00	 call	 ??0?$basic_ostringstream@DU?$char_traits@D@std@@V?$allocator@D@2@@std@@QAE@H@Z ; std::basic_ostringstream<char,std::char_traits<char>,std::allocator<char> >::basic_ostringstream<char,std::char_traits<char>,std::allocator<char> >

; 41   :                 message << "Can`t find module or function. " << "Module: " << importsMap.first << " <|> " << "Function: " << importInfo.function;

  0039c	ba 00 00 00 00	 mov	 edx, OFFSET ??_C@_0CA@LNJEDMFL@Can?$GAt?5find?5module?5or?5function?4?5@
  003a1	c6 45 fc 06	 mov	 BYTE PTR __$EHRec$[ebp+8], 6
  003a5	8d 8d 4c ff ff
	ff		 lea	 ecx, DWORD PTR _message$188[ebp]
  003ab	e8 00 00 00 00	 call	 ??$?6U?$char_traits@D@std@@@std@@YAAAV?$basic_ostream@DU?$char_traits@D@std@@@0@AAV10@PBD@Z ; std::operator<<<std::char_traits<char> >
  003b0	ba 00 00 00 00	 mov	 edx, OFFSET ??_C@_08PHLEJAAL@Module?3?5@
  003b5	8b c8		 mov	 ecx, eax
  003b7	e8 00 00 00 00	 call	 ??$?6U?$char_traits@D@std@@@std@@YAAAV?$basic_ostream@DU?$char_traits@D@std@@@0@AAV10@PBD@Z ; std::operator<<<std::char_traits<char> >
  003bc	8b 57 10	 mov	 edx, DWORD PTR [edi+16]
  003bf	8b c8		 mov	 ecx, eax
  003c1	e8 00 00 00 00	 call	 ??$?6U?$char_traits@D@std@@@std@@YAAAV?$basic_ostream@DU?$char_traits@D@std@@@0@AAV10@PBD@Z ; std::operator<<<std::char_traits<char> >
  003c6	ba 00 00 00 00	 mov	 edx, OFFSET ??_C@_05LHNIPNPB@?5?$DM?$HM?$DO?5@
  003cb	8b c8		 mov	 ecx, eax
  003cd	e8 00 00 00 00	 call	 ??$?6U?$char_traits@D@std@@@std@@YAAAV?$basic_ostream@DU?$char_traits@D@std@@@0@AAV10@PBD@Z ; std::operator<<<std::char_traits<char> >
  003d2	ba 00 00 00 00	 mov	 edx, OFFSET ??_C@_0L@DLBPKAOP@Function?3?5@
  003d7	8b c8		 mov	 ecx, eax
  003d9	e8 00 00 00 00	 call	 ??$?6U?$char_traits@D@std@@@std@@YAAAV?$basic_ostream@DU?$char_traits@D@std@@@0@AAV10@PBD@Z ; std::operator<<<std::char_traits<char> >
  003de	8b 95 48 ff ff
	ff		 mov	 edx, DWORD PTR _<begin>$L2$1$[ebp]
  003e4	8b c8		 mov	 ecx, eax
  003e6	8b 12		 mov	 edx, DWORD PTR [edx]
  003e8	e8 00 00 00 00	 call	 ??$?6U?$char_traits@D@std@@@std@@YAAAV?$basic_ostream@DU?$char_traits@D@std@@@0@AAV10@PBD@Z ; std::operator<<<std::char_traits<char> >

; 42   :                 PanicUtils::Release (PanicUtils::Layers::INIT, message.str().c_str());

  003ed	8d 85 28 ff ff
	ff		 lea	 eax, DWORD PTR $T140[ebp]
  003f3	50		 push	 eax
  003f4	8d 8d 4c ff ff
	ff		 lea	 ecx, DWORD PTR _message$188[ebp]
  003fa	e8 00 00 00 00	 call	 ?str@?$basic_ostringstream@DU?$char_traits@D@std@@V?$allocator@D@2@@std@@QBE?AV?$basic_string@DU?$char_traits@D@std@@V?$allocator@D@2@@2@XZ ; std::basic_ostringstream<char,std::char_traits<char>,std::allocator<char> >::str
  003ff	8b c8		 mov	 ecx, eax
  00401	c6 45 fc 07	 mov	 BYTE PTR __$EHRec$[ebp+8], 7
  00405	e8 00 00 00 00	 call	 ?c_str@?$basic_string@DU?$char_traits@D@std@@V?$allocator@D@2@@std@@QBEPBDXZ ; std::basic_string<char,std::char_traits<char>,std::allocator<char> >::c_str
  0040a	8b d0		 mov	 edx, eax
  0040c	33 c9		 xor	 ecx, ecx
  0040e	e8 00 00 00 00	 call	 ?Release@PanicUtils@@SAXW4Layers@1@PBD@Z ; PanicUtils::Release
$LN783@Reconstruc:

; 60   : 
; 61   :                     default:
; 62   :                         //Just error. Message, value, etc.
; 63   :                         std::ostringstream message;

  00413	51		 push	 ecx
  00414	8d 8d 4c ff ff
	ff		 lea	 ecx, DWORD PTR _message$187[ebp]
  0041a	e8 00 00 00 00	 call	 ?__autoclassinit2@?$basic_ostringstream@DU?$char_traits@D@std@@V?$allocator@D@2@@std@@QAEXI@Z
  0041f	83 ec 08	 sub	 esp, 8
  00422	8d 8d 4c ff ff
	ff		 lea	 ecx, DWORD PTR _message$187[ebp]
  00428	e8 00 00 00 00	 call	 ??0?$basic_ostringstream@DU?$char_traits@D@std@@V?$allocator@D@2@@std@@QAE@H@Z ; std::basic_ostringstream<char,std::char_traits<char>,std::allocator<char> >::basic_ostringstream<char,std::char_traits<char>,std::allocator<char> >

; 64   :                         message << "Can't find offset type. Offset: " << parsedOffset.second << " <-> " << "Function: " << importInfo.function;

  0042d	ba 00 00 00 00	 mov	 edx, OFFSET ??_C@_0CB@FHNJEIA@Can?8t?5find?5offset?5type?4?5Offset?3@
  00432	c6 45 fc 08	 mov	 BYTE PTR __$EHRec$[ebp+8], 8
  00436	8d 8d 4c ff ff
	ff		 lea	 ecx, DWORD PTR _message$187[ebp]
  0043c	e8 00 00 00 00	 call	 ??$?6U?$char_traits@D@std@@@std@@YAAAV?$basic_ostream@DU?$char_traits@D@std@@@0@AAV10@PBD@Z ; std::operator<<<std::char_traits<char> >
  00441	ff 76 14	 push	 DWORD PTR [esi+20]
  00444	8b c8		 mov	 ecx, eax
  00446	ff 15 00 00 00
	00		 call	 DWORD PTR __imp_??6?$basic_ostream@DU?$char_traits@D@std@@@std@@QAEAAV01@K@Z
  0044c	ba 00 00 00 00	 mov	 edx, OFFSET ??_C@_05MEGJJFDG@?5?$DM?9?$DO?5@
  00451	8b c8		 mov	 ecx, eax
  00453	e8 00 00 00 00	 call	 ??$?6U?$char_traits@D@std@@@std@@YAAAV?$basic_ostream@DU?$char_traits@D@std@@@0@AAV10@PBD@Z ; std::operator<<<std::char_traits<char> >
  00458	ba 00 00 00 00	 mov	 edx, OFFSET ??_C@_0L@DLBPKAOP@Function?3?5@
  0045d	8b c8		 mov	 ecx, eax
  0045f	e8 00 00 00 00	 call	 ??$?6U?$char_traits@D@std@@@std@@YAAAV?$basic_ostream@DU?$char_traits@D@std@@@0@AAV10@PBD@Z ; std::operator<<<std::char_traits<char> >
  00464	8b 95 48 ff ff
	ff		 mov	 edx, DWORD PTR _<begin>$L2$1$[ebp]
  0046a	8b c8		 mov	 ecx, eax
  0046c	8b 12		 mov	 edx, DWORD PTR [edx]
  0046e	e8 00 00 00 00	 call	 ??$?6U?$char_traits@D@std@@@std@@YAAAV?$basic_ostream@DU?$char_traits@D@std@@@0@AAV10@PBD@Z ; std::operator<<<std::char_traits<char> >

; 65   :                         PanicUtils::Release (PanicUtils::Layers::ROUTINE, message.str().c_str());

  00473	8d 85 28 ff ff
	ff		 lea	 eax, DWORD PTR $T153[ebp]
  00479	50		 push	 eax
  0047a	8d 8d 4c ff ff
	ff		 lea	 ecx, DWORD PTR _message$187[ebp]
  00480	e8 00 00 00 00	 call	 ?str@?$basic_ostringstream@DU?$char_traits@D@std@@V?$allocator@D@2@@std@@QBE?AV?$basic_string@DU?$char_traits@D@std@@V?$allocator@D@2@@2@XZ ; std::basic_ostringstream<char,std::char_traits<char>,std::allocator<char> >::str
  00485	8b c8		 mov	 ecx, eax
  00487	c6 45 fc 09	 mov	 BYTE PTR __$EHRec$[ebp+8], 9
  0048b	e8 00 00 00 00	 call	 ?c_str@?$basic_string@DU?$char_traits@D@std@@V?$allocator@D@2@@std@@QBEPBDXZ ; std::basic_string<char,std::char_traits<char>,std::allocator<char> >::c_str
  00490	8b d0		 mov	 edx, eax
  00492	b9 01 00 00 00	 mov	 ecx, 1
  00497	e8 00 00 00 00	 call	 ?Release@PanicUtils@@SAXW4Layers@1@PBD@Z ; PanicUtils::Release
$LN790@Reconstruc:
  0049c	cc		 int	 3
_TEXT	ENDS
;	COMDAT text$x
text$x	SEGMENT
__unwindfunclet$?ReconstructHotPoints@RuntimeHandler@@QAEXXZ$9:
  00000	8d 8d 2c ff ff
	ff		 lea	 ecx, DWORD PTR $T3[ebp]
  00006	e9 00 00 00 00	 jmp	 ??1?$map@PBDV?$vector@UImportInfo@SegmentHeader@@V?$allocator@UImportInfo@SegmentHeader@@@std@@@std@@U?$less@PBD@2@V?$allocator@U?$pair@QBDV?$vector@UImportInfo@SegmentHeader@@V?$allocator@UImportInfo@SegmentHeader@@@std@@@std@@@std@@@2@@std@@QAE@XZ
__unwindfunclet$?ReconstructHotPoints@RuntimeHandler@@QAEXXZ$0:
  0000b	8d 8d 2c ff ff
	ff		 lea	 ecx, DWORD PTR $T3[ebp]
  00011	e9 00 00 00 00	 jmp	 ??1SegmentHeader@@QAE@XZ
__unwindfunclet$?ReconstructHotPoints@RuntimeHandler@@QAEXXZ$14:
  00016	8d 8d 2c ff ff
	ff		 lea	 ecx, DWORD PTR $T54[ebp]
  0001c	e9 00 00 00 00	 jmp	 ??1?$map@PBDV?$vector@UImportInfo@SegmentHeader@@V?$allocator@UImportInfo@SegmentHeader@@@std@@@std@@U?$less@PBD@2@V?$allocator@U?$pair@QBDV?$vector@UImportInfo@SegmentHeader@@V?$allocator@UImportInfo@SegmentHeader@@@std@@@std@@@std@@@2@@std@@QAE@XZ
__unwindfunclet$?ReconstructHotPoints@RuntimeHandler@@QAEXXZ$2:
  00021	8d 8d 2c ff ff
	ff		 lea	 ecx, DWORD PTR $T54[ebp]
  00027	e9 00 00 00 00	 jmp	 ??1SegmentHeader@@QAE@XZ
__unwindfunclet$?ReconstructHotPoints@RuntimeHandler@@QAEXXZ$3:
  0002c	8d 4d e8	 lea	 ecx, DWORD PTR _$S2$190[ebp]
  0002f	e9 00 00 00 00	 jmp	 ??1?$map@PBDV?$vector@UImportInfo@SegmentHeader@@V?$allocator@UImportInfo@SegmentHeader@@@std@@@std@@U?$less@PBD@2@V?$allocator@U?$pair@QBDV?$vector@UImportInfo@SegmentHeader@@V?$allocator@UImportInfo@SegmentHeader@@@std@@@std@@@std@@@2@@std@@QAE@XZ
__unwindfunclet$?ReconstructHotPoints@RuntimeHandler@@QAEXXZ$4:
  00034	8d 8d 4c ff ff
	ff		 lea	 ecx, DWORD PTR _message$188[ebp]
  0003a	e9 00 00 00 00	 jmp	 ??_D?$basic_ostringstream@DU?$char_traits@D@std@@V?$allocator@D@2@@std@@QAEXXZ
__unwindfunclet$?ReconstructHotPoints@RuntimeHandler@@QAEXXZ$5:
  0003f	8d 8d 28 ff ff
	ff		 lea	 ecx, DWORD PTR $T140[ebp]
  00045	e9 00 00 00 00	 jmp	 ??1?$basic_string@DU?$char_traits@D@std@@V?$allocator@D@2@@std@@QAE@XZ ; std::basic_string<char,std::char_traits<char>,std::allocator<char> >::~basic_string<char,std::char_traits<char>,std::allocator<char> >
__unwindfunclet$?ReconstructHotPoints@RuntimeHandler@@QAEXXZ$6:
  0004a	8d 8d 4c ff ff
	ff		 lea	 ecx, DWORD PTR _message$187[ebp]
  00050	e9 00 00 00 00	 jmp	 ??_D?$basic_ostringstream@DU?$char_traits@D@std@@V?$allocator@D@2@@std@@QAEXXZ
__unwindfunclet$?ReconstructHotPoints@RuntimeHandler@@QAEXXZ$7:
  00055	8d 8d 28 ff ff
	ff		 lea	 ecx, DWORD PTR $T153[ebp]
  0005b	e9 00 00 00 00	 jmp	 ??1?$basic_string@DU?$char_traits@D@std@@V?$allocator@D@2@@std@@QAE@XZ ; std::basic_string<char,std::char_traits<char>,std::allocator<char> >::~basic_string<char,std::char_traits<char>,std::allocator<char> >
__ehhandler$?ReconstructHotPoints@RuntimeHandler@@QAEXXZ:
  00060	8b 54 24 08	 mov	 edx, DWORD PTR [esp+8]
  00064	8d 42 0c	 lea	 eax, DWORD PTR [edx+12]
  00067	8b 8a 20 ff ff
	ff		 mov	 ecx, DWORD PTR [edx-224]
  0006d	33 c8		 xor	 ecx, eax
  0006f	e8 00 00 00 00	 call	 @__security_check_cookie@4
  00074	8b 4a fc	 mov	 ecx, DWORD PTR [edx-4]
  00077	33 c8		 xor	 ecx, eax
  00079	e8 00 00 00 00	 call	 @__security_check_cookie@4
  0007e	b8 00 00 00 00	 mov	 eax, OFFSET __ehfuncinfo$?ReconstructHotPoints@RuntimeHandler@@QAEXXZ
  00083	e9 00 00 00 00	 jmp	 ___CxxFrameHandler3
text$x	ENDS
?ReconstructHotPoints@RuntimeHandler@@QAEXXZ ENDP	; RuntimeHandler::ReconstructHotPoints
; Function compile flags: /Ogtp
;	COMDAT ?__autoclassinit2@?$_Tree_unchecked_iterator@V?$_Tree_val@U?$_Tree_simple_types@U?$pair@QBDV?$vector@UImportInfo@SegmentHeader@@V?$allocator@UImportInfo@SegmentHeader@@@std@@@std@@@std@@@std@@@std@@@std@@QAEXI@Z
_TEXT	SEGMENT
_classSize$dead$ = 8					; size = 4
?__autoclassinit2@?$_Tree_unchecked_iterator@V?$_Tree_val@U?$_Tree_simple_types@U?$pair@QBDV?$vector@UImportInfo@SegmentHeader@@V?$allocator@UImportInfo@SegmentHeader@@@std@@@std@@@std@@@std@@@std@@@std@@QAEXI@Z PROC ; std::_Tree_unchecked_iterator<std::_Tree_val<std::_Tree_simple_types<std::pair<char const * const,std::vector<SegmentHeader::ImportInfo,std::allocator<SegmentHeader::ImportInfo> > > > > >::__autoclassinit2, COMDAT
; _this$ = ecx
  00000	c7 01 00 00 00
	00		 mov	 DWORD PTR [ecx], 0
  00006	c2 04 00	 ret	 4
?__autoclassinit2@?$_Tree_unchecked_iterator@V?$_Tree_val@U?$_Tree_simple_types@U?$pair@QBDV?$vector@UImportInfo@SegmentHeader@@V?$allocator@UImportInfo@SegmentHeader@@@std@@@std@@@std@@@std@@@std@@@std@@QAEXI@Z ENDP ; std::_Tree_unchecked_iterator<std::_Tree_val<std::_Tree_simple_types<std::pair<char const * const,std::vector<SegmentHeader::ImportInfo,std::allocator<SegmentHeader::ImportInfo> > > > > >::__autoclassinit2
_TEXT	ENDS
; Function compile flags: /Ogtp
; File c:\program files (x86)\microsoft visual studio\2017\community\vc\tools\msvc\14.16.27023\include\sstream
;	COMDAT ??_D?$basic_ostringstream@DU?$char_traits@D@std@@V?$allocator@D@2@@std@@QAEXXZ
_TEXT	SEGMENT
??_D?$basic_ostringstream@DU?$char_traits@D@std@@V?$allocator@D@2@@std@@QAEXXZ PROC ; std::basic_ostringstream<char,std::char_traits<char>,std::allocator<char> >::`vbase destructor', COMDAT
; _this$ = ecx

; 614  : 		{	// destroy the object

  00000	8b 01		 mov	 eax, DWORD PTR [ecx]
  00002	56		 push	 esi
  00003	8d 71 50	 lea	 esi, DWORD PTR [ecx+80]

; 615  : 		}

  00006	8d 4e b4	 lea	 ecx, DWORD PTR [esi-76]
  00009	8b 40 04	 mov	 eax, DWORD PTR [eax+4]
  0000c	c7 44 30 b0 00
	00 00 00	 mov	 DWORD PTR [eax+esi-80], OFFSET ??_7?$basic_ostringstream@DU?$char_traits@D@std@@V?$allocator@D@2@@std@@6B@
  00014	8b 46 b0	 mov	 eax, DWORD PTR [esi-80]
  00017	8b 50 04	 mov	 edx, DWORD PTR [eax+4]
  0001a	8d 42 b0	 lea	 eax, DWORD PTR [edx-80]
  0001d	89 44 32 ac	 mov	 DWORD PTR [edx+esi-84], eax
  00021	e8 00 00 00 00	 call	 ??1?$basic_stringbuf@DU?$char_traits@D@std@@V?$allocator@D@2@@std@@UAE@XZ ; std::basic_stringbuf<char,std::char_traits<char>,std::allocator<char> >::~basic_stringbuf<char,std::char_traits<char>,std::allocator<char> >
  00026	8d 4e b8	 lea	 ecx, DWORD PTR [esi-72]
  00029	ff 15 00 00 00
	00		 call	 DWORD PTR __imp_??1?$basic_ostream@DU?$char_traits@D@std@@@std@@UAE@XZ
  0002f	8b ce		 mov	 ecx, esi
  00031	5e		 pop	 esi
  00032	ff 25 00 00 00
	00		 jmp	 DWORD PTR __imp_??1?$basic_ios@DU?$char_traits@D@std@@@std@@UAE@XZ
??_D?$basic_ostringstream@DU?$char_traits@D@std@@V?$allocator@D@2@@std@@QAEXXZ ENDP ; std::basic_ostringstream<char,std::char_traits<char>,std::allocator<char> >::`vbase destructor'
_TEXT	ENDS
; Function compile flags: /Ogtp
;	COMDAT ?__autoclassinit2@?$basic_ostringstream@DU?$char_traits@D@std@@V?$allocator@D@2@@std@@QAEXI@Z
_TEXT	SEGMENT
_classSize$dead$ = 8					; size = 4
?__autoclassinit2@?$basic_ostringstream@DU?$char_traits@D@std@@V?$allocator@D@2@@std@@QAEXI@Z PROC ; std::basic_ostringstream<char,std::char_traits<char>,std::allocator<char> >::__autoclassinit2, COMDAT
; _this$ = ecx
  00000	68 98 00 00 00	 push	 152			; 00000098H
  00005	6a 00		 push	 0
  00007	51		 push	 ecx
  00008	e8 00 00 00 00	 call	 _memset
  0000d	83 c4 0c	 add	 esp, 12			; 0000000cH
  00010	c2 04 00	 ret	 4
